
Smart_Home_D66.elf:     file format elf32-avr

Sections:
Idx Name          Size      VMA       LMA       File off  Algn
  0 .text         00001ab0  00000000  00000000  00000094  2**1
                  CONTENTS, ALLOC, LOAD, READONLY, CODE
  1 .data         000005d4  00800060  00001ab0  00001b44  2**0
                  CONTENTS, ALLOC, LOAD, DATA
  2 .bss          0000005b  00800634  00800634  00002118  2**0
                  ALLOC
  3 .comment      00000030  00000000  00000000  00002118  2**0
                  CONTENTS, READONLY
  4 .note.gnu.avr.deviceinfo 0000003c  00000000  00000000  00002148  2**2
                  CONTENTS, READONLY
  5 .debug_aranges 000006c8  00000000  00000000  00002184  2**0
                  CONTENTS, READONLY, DEBUGGING
  6 .debug_info   00005b4b  00000000  00000000  0000284c  2**0
                  CONTENTS, READONLY, DEBUGGING
  7 .debug_abbrev 0000151f  00000000  00000000  00008397  2**0
                  CONTENTS, READONLY, DEBUGGING
  8 .debug_line   00002fa7  00000000  00000000  000098b6  2**0
                  CONTENTS, READONLY, DEBUGGING
  9 .debug_frame  00000ebc  00000000  00000000  0000c860  2**2
                  CONTENTS, READONLY, DEBUGGING
 10 .debug_str    00001718  00000000  00000000  0000d71c  2**0
                  CONTENTS, READONLY, DEBUGGING
 11 .debug_loc    00002376  00000000  00000000  0000ee34  2**0
                  CONTENTS, READONLY, DEBUGGING
 12 .debug_ranges 00000600  00000000  00000000  000111aa  2**0
                  CONTENTS, READONLY, DEBUGGING

Disassembly of section .text:

00000000 <__vectors>:
       0:	0c 94 39 00 	jmp	0x72	; 0x72 <__ctors_end>
       4:	0c 94 56 00 	jmp	0xac	; 0xac <__bad_interrupt>
       8:	0c 94 56 00 	jmp	0xac	; 0xac <__bad_interrupt>
       c:	0c 94 56 00 	jmp	0xac	; 0xac <__bad_interrupt>
      10:	0c 94 56 00 	jmp	0xac	; 0xac <__bad_interrupt>
      14:	0c 94 56 00 	jmp	0xac	; 0xac <__bad_interrupt>
      18:	0c 94 56 00 	jmp	0xac	; 0xac <__bad_interrupt>
      1c:	0c 94 8f 01 	jmp	0x31e	; 0x31e <__vector_7>
      20:	0c 94 56 00 	jmp	0xac	; 0xac <__bad_interrupt>
      24:	0c 94 56 00 	jmp	0xac	; 0xac <__bad_interrupt>
      28:	0c 94 56 00 	jmp	0xac	; 0xac <__bad_interrupt>
      2c:	0c 94 c2 00 	jmp	0x184	; 0x184 <__vector_11>
      30:	0c 94 56 00 	jmp	0xac	; 0xac <__bad_interrupt>
      34:	0c 94 aa 08 	jmp	0x1154	; 0x1154 <__vector_13>
      38:	0c 94 56 00 	jmp	0xac	; 0xac <__bad_interrupt>
      3c:	0c 94 56 00 	jmp	0xac	; 0xac <__bad_interrupt>
      40:	0c 94 56 00 	jmp	0xac	; 0xac <__bad_interrupt>
      44:	0c 94 56 00 	jmp	0xac	; 0xac <__bad_interrupt>
      48:	0c 94 56 00 	jmp	0xac	; 0xac <__bad_interrupt>
      4c:	0c 94 56 00 	jmp	0xac	; 0xac <__bad_interrupt>
      50:	0c 94 56 00 	jmp	0xac	; 0xac <__bad_interrupt>
      54:	0b 07       	cpc	r16, r27
      56:	13 07       	cpc	r17, r19
      58:	4b 07       	cpc	r20, r27
      5a:	53 07       	cpc	r21, r19
      5c:	8b 07       	cpc	r24, r27
      5e:	ce 07       	cpc	r28, r30
      60:	da 07       	cpc	r29, r26
      62:	f4 0c       	add	r15, r4
      64:	f7 0c       	add	r15, r7
      66:	fa 0c       	add	r15, r10
      68:	fd 0c       	add	r15, r13
      6a:	00 0d       	add	r16, r0
      6c:	03 0d       	add	r16, r3
      6e:	06 0d       	add	r16, r6
      70:	09 0d       	add	r16, r9

00000072 <__ctors_end>:
      72:	11 24       	eor	r1, r1
      74:	1f be       	out	0x3f, r1	; 63
      76:	cf e5       	ldi	r28, 0x5F	; 95
      78:	d8 e0       	ldi	r29, 0x08	; 8
      7a:	de bf       	out	0x3e, r29	; 62
      7c:	cd bf       	out	0x3d, r28	; 61

0000007e <__do_copy_data>:
      7e:	16 e0       	ldi	r17, 0x06	; 6
      80:	a0 e6       	ldi	r26, 0x60	; 96
      82:	b0 e0       	ldi	r27, 0x00	; 0
      84:	e0 eb       	ldi	r30, 0xB0	; 176
      86:	fa e1       	ldi	r31, 0x1A	; 26
      88:	02 c0       	rjmp	.+4      	; 0x8e <__do_copy_data+0x10>
      8a:	05 90       	lpm	r0, Z+
      8c:	0d 92       	st	X+, r0
      8e:	a4 33       	cpi	r26, 0x34	; 52
      90:	b1 07       	cpc	r27, r17
      92:	d9 f7       	brne	.-10     	; 0x8a <__do_copy_data+0xc>

00000094 <__do_clear_bss>:
      94:	26 e0       	ldi	r18, 0x06	; 6
      96:	a4 e3       	ldi	r26, 0x34	; 52
      98:	b6 e0       	ldi	r27, 0x06	; 6
      9a:	01 c0       	rjmp	.+2      	; 0x9e <.do_clear_bss_start>

0000009c <.do_clear_bss_loop>:
      9c:	1d 92       	st	X+, r1

0000009e <.do_clear_bss_start>:
      9e:	af 38       	cpi	r26, 0x8F	; 143
      a0:	b2 07       	cpc	r27, r18
      a2:	e1 f7       	brne	.-8      	; 0x9c <.do_clear_bss_loop>
      a4:	0e 94 1b 0a 	call	0x1436	; 0x1436 <main>
      a8:	0c 94 56 0d 	jmp	0x1aac	; 0x1aac <_exit>

000000ac <__bad_interrupt>:
      ac:	0c 94 00 00 	jmp	0	; 0x0 <__vectors>

000000b0 <AC_Initialization>:
uint8 AC_State_Auto = 0;
uint8 AC_State = 0;

void AC_Initialization()
{
	DIO_Set_Pin_Direction(AC_Port,AC_Pin,Out);
      b0:	41 e0       	ldi	r20, 0x01	; 1
      b2:	62 e0       	ldi	r22, 0x02	; 2
      b4:	80 e0       	ldi	r24, 0x00	; 0
      b6:	0e 94 22 0a 	call	0x1444	; 0x1444 <DIO_Set_Pin_Direction>
      ba:	08 95       	ret

000000bc <AC_On>:
}
void AC_On(){
	DIO_Set_Pin_Output(AC_Port,AC_Pin,High);
      bc:	41 e0       	ldi	r20, 0x01	; 1
      be:	62 e0       	ldi	r22, 0x02	; 2
      c0:	80 e0       	ldi	r24, 0x00	; 0
      c2:	0e 94 92 0a 	call	0x1524	; 0x1524 <DIO_Set_Pin_Output>
      c6:	08 95       	ret

000000c8 <AC_Off>:
}
void AC_Off(){
	DIO_Set_Pin_Output(AC_Port,AC_Pin,Low);
      c8:	40 e0       	ldi	r20, 0x00	; 0
      ca:	62 e0       	ldi	r22, 0x02	; 2
      cc:	80 e0       	ldi	r24, 0x00	; 0
      ce:	0e 94 92 0a 	call	0x1524	; 0x1524 <DIO_Set_Pin_Output>
      d2:	08 95       	ret

000000d4 <AC_Feedback>:

void AC_Feedback(uint8 New_Feed){
	//1 Means Turn Automatic AC
	//2 Means Turn Off AC Manual
	//3 Means Turn On AC Manual
	switch(New_Feed){
      d4:	82 30       	cpi	r24, 0x02	; 2
      d6:	c9 f0       	breq	.+50     	; 0x10a <AC_Feedback+0x36>
      d8:	83 30       	cpi	r24, 0x03	; 3
      da:	71 f1       	breq	.+92     	; 0x138 <AC_Feedback+0x64>
      dc:	81 30       	cpi	r24, 0x01	; 1
      de:	09 f0       	breq	.+2      	; 0xe2 <AC_Feedback+0xe>
      e0:	43 c0       	rjmp	.+134    	; 0x168 <AC_Feedback+0x94>
		case 1:
			switch(AC_State_Auto){
      e2:	80 91 35 06 	lds	r24, 0x0635	; 0x800635 <AC_State_Auto>
      e6:	88 23       	and	r24, r24
      e8:	19 f0       	breq	.+6      	; 0xf0 <AC_Feedback+0x1c>
      ea:	81 30       	cpi	r24, 0x01	; 1
      ec:	49 f0       	breq	.+18     	; 0x100 <AC_Feedback+0x2c>
      ee:	08 95       	ret
				case 0 :
				AC_State_Auto = 1;
      f0:	81 e0       	ldi	r24, 0x01	; 1
      f2:	80 93 35 06 	sts	0x0635, r24	; 0x800635 <AC_State_Auto>
				UART_Send_String_Polling_8("AC Auto Success!");
      f6:	83 e7       	ldi	r24, 0x73	; 115
      f8:	90 e0       	ldi	r25, 0x00	; 0
      fa:	0e 94 e8 0b 	call	0x17d0	; 0x17d0 <UART_Send_String_Polling_8>
				break;
      fe:	08 95       	ret
				case 1:
				UART_Send_String_Polling_8("AC is Already Auto!");
     100:	84 e8       	ldi	r24, 0x84	; 132
     102:	90 e0       	ldi	r25, 0x00	; 0
     104:	0e 94 e8 0b 	call	0x17d0	; 0x17d0 <UART_Send_String_Polling_8>
				break;
     108:	08 95       	ret
			}
			break;
		case 2:
			switch(AC_State){
     10a:	80 91 34 06 	lds	r24, 0x0634	; 0x800634 <__data_end>
     10e:	88 23       	and	r24, r24
     110:	19 f0       	breq	.+6      	; 0x118 <AC_Feedback+0x44>
     112:	81 30       	cpi	r24, 0x01	; 1
     114:	31 f0       	breq	.+12     	; 0x122 <AC_Feedback+0x4e>
     116:	08 95       	ret
				case 0 :
					UART_Send_String_Polling_8("AC is Already Closed!");
     118:	88 e9       	ldi	r24, 0x98	; 152
     11a:	90 e0       	ldi	r25, 0x00	; 0
     11c:	0e 94 e8 0b 	call	0x17d0	; 0x17d0 <UART_Send_String_Polling_8>
					break;
     120:	08 95       	ret
				case 1:
					AC_Off();
     122:	0e 94 64 00 	call	0xc8	; 0xc8 <AC_Off>
					AC_State = 0;
     126:	10 92 34 06 	sts	0x0634, r1	; 0x800634 <__data_end>
					AC_State_Auto = 0;
     12a:	10 92 35 06 	sts	0x0635, r1	; 0x800635 <AC_State_Auto>
					UART_Send_String_Polling_8("AC Turned Off Success!");
     12e:	8e ea       	ldi	r24, 0xAE	; 174
     130:	90 e0       	ldi	r25, 0x00	; 0
     132:	0e 94 e8 0b 	call	0x17d0	; 0x17d0 <UART_Send_String_Polling_8>
					break;
     136:	08 95       	ret
			}
			break;
		case 3:
			switch(AC_State){
     138:	80 91 34 06 	lds	r24, 0x0634	; 0x800634 <__data_end>
     13c:	88 23       	and	r24, r24
     13e:	19 f0       	breq	.+6      	; 0x146 <AC_Feedback+0x72>
     140:	81 30       	cpi	r24, 0x01	; 1
     142:	69 f0       	breq	.+26     	; 0x15e <AC_Feedback+0x8a>
     144:	08 95       	ret
				case 0 :
					AC_On();
     146:	0e 94 5e 00 	call	0xbc	; 0xbc <AC_On>
					AC_State = 1;
     14a:	81 e0       	ldi	r24, 0x01	; 1
     14c:	80 93 34 06 	sts	0x0634, r24	; 0x800634 <__data_end>
					AC_State_Auto = 0;
     150:	10 92 35 06 	sts	0x0635, r1	; 0x800635 <AC_State_Auto>
					UART_Send_String_Polling_8("AC Turned On Success!");
     154:	85 ec       	ldi	r24, 0xC5	; 197
     156:	90 e0       	ldi	r25, 0x00	; 0
     158:	0e 94 e8 0b 	call	0x17d0	; 0x17d0 <UART_Send_String_Polling_8>
					break;
     15c:	08 95       	ret
				case 1:
					UART_Send_String_Polling_8("AC Already Turned ON!");
     15e:	8b ed       	ldi	r24, 0xDB	; 219
     160:	90 e0       	ldi	r25, 0x00	; 0
     162:	0e 94 e8 0b 	call	0x17d0	; 0x17d0 <UART_Send_String_Polling_8>
					break;
     166:	08 95       	ret
			}
			break;
		default:UART_Show_Invalid();break;
     168:	0e 94 26 0c 	call	0x184c	; 0x184c <UART_Show_Invalid>
     16c:	08 95       	ret

0000016e <BUZZER_On>:
	DIO_Set_Pin_Output(PORTAx,Pin3,High);
}

void BUZZER_Off()
{
	DIO_Set_Pin_Output(PORTAx,Pin3,Low);
     16e:	41 e0       	ldi	r20, 0x01	; 1
     170:	63 e0       	ldi	r22, 0x03	; 3
     172:	80 e0       	ldi	r24, 0x00	; 0
     174:	0e 94 92 0a 	call	0x1524	; 0x1524 <DIO_Set_Pin_Output>
     178:	08 95       	ret

0000017a <BUZZER_ALARM_TILL_RESET>:
}

void BUZZER_ALARM_TILL_RESET()
{
	GIE_Disable();
     17a:	0e 94 6a 0b 	call	0x16d4	; 0x16d4 <GIE_Disable>
	BUZZER_On();
     17e:	0e 94 b7 00 	call	0x16e	; 0x16e <BUZZER_On>
     182:	ff cf       	rjmp	.-2      	; 0x182 <BUZZER_ALARM_TILL_RESET+0x8>

00000184 <__vector_11>:
	if(G_Dimmer_Value >= 50){
		G_Dimmer_Value--;
	}
}
void Dimmer_On(){
	G_Dimmer_Value = 50;	
     184:	1f 92       	push	r1
     186:	0f 92       	push	r0
     188:	0f b6       	in	r0, 0x3f	; 63
     18a:	0f 92       	push	r0
     18c:	11 24       	eor	r1, r1
     18e:	2f 93       	push	r18
     190:	3f 93       	push	r19
     192:	4f 93       	push	r20
     194:	5f 93       	push	r21
     196:	6f 93       	push	r22
     198:	7f 93       	push	r23
     19a:	8f 93       	push	r24
     19c:	9f 93       	push	r25
     19e:	af 93       	push	r26
     1a0:	bf 93       	push	r27
     1a2:	ef 93       	push	r30
     1a4:	ff 93       	push	r31
     1a6:	90 91 36 06 	lds	r25, 0x0636	; 0x800636 <Dimmercounter.1761>
     1aa:	80 91 37 06 	lds	r24, 0x0637	; 0x800637 <G_Dimmer_Value>
     1ae:	98 17       	cp	r25, r24
     1b0:	30 f4       	brcc	.+12     	; 0x1be <__vector_11+0x3a>
     1b2:	41 e0       	ldi	r20, 0x01	; 1
     1b4:	63 e0       	ldi	r22, 0x03	; 3
     1b6:	83 e0       	ldi	r24, 0x03	; 3
     1b8:	0e 94 92 0a 	call	0x1524	; 0x1524 <DIO_Set_Pin_Output>
     1bc:	07 c0       	rjmp	.+14     	; 0x1cc <__vector_11+0x48>
     1be:	98 17       	cp	r25, r24
     1c0:	28 f0       	brcs	.+10     	; 0x1cc <__vector_11+0x48>
     1c2:	40 e0       	ldi	r20, 0x00	; 0
     1c4:	63 e0       	ldi	r22, 0x03	; 3
     1c6:	83 e0       	ldi	r24, 0x03	; 3
     1c8:	0e 94 92 0a 	call	0x1524	; 0x1524 <DIO_Set_Pin_Output>
     1cc:	80 91 36 06 	lds	r24, 0x0636	; 0x800636 <Dimmercounter.1761>
     1d0:	8f 5f       	subi	r24, 0xFF	; 255
     1d2:	80 93 36 06 	sts	0x0636, r24	; 0x800636 <Dimmercounter.1761>
     1d6:	8e 3f       	cpi	r24, 0xFE	; 254
     1d8:	10 f0       	brcs	.+4      	; 0x1de <__vector_11+0x5a>
     1da:	10 92 36 06 	sts	0x0636, r1	; 0x800636 <Dimmercounter.1761>
     1de:	ff 91       	pop	r31
     1e0:	ef 91       	pop	r30
     1e2:	bf 91       	pop	r27
     1e4:	af 91       	pop	r26
     1e6:	9f 91       	pop	r25
     1e8:	8f 91       	pop	r24
     1ea:	7f 91       	pop	r23
     1ec:	6f 91       	pop	r22
     1ee:	5f 91       	pop	r21
     1f0:	4f 91       	pop	r20
     1f2:	3f 91       	pop	r19
     1f4:	2f 91       	pop	r18
     1f6:	0f 90       	pop	r0
     1f8:	0f be       	out	0x3f, r0	; 63
     1fa:	0f 90       	pop	r0
     1fc:	1f 90       	pop	r1
     1fe:	18 95       	reti

00000200 <Dimmer_Init>:
     200:	41 e0       	ldi	r20, 0x01	; 1
     202:	63 e0       	ldi	r22, 0x03	; 3
     204:	83 e0       	ldi	r24, 0x03	; 3
     206:	0e 94 22 0a 	call	0x1444	; 0x1444 <DIO_Set_Pin_Direction>
     20a:	0e 94 6e 0b 	call	0x16dc	; 0x16dc <Timer0_Init>
     20e:	0e 94 84 0b 	call	0x1708	; 0x1708 <Timer0_Enable_Overflow_Interrupt>
     212:	08 95       	ret

00000214 <Dimmer_Feedback>:
     214:	82 30       	cpi	r24, 0x02	; 2
     216:	e9 f0       	breq	.+58     	; 0x252 <Dimmer_Feedback+0x3e>
     218:	18 f4       	brcc	.+6      	; 0x220 <Dimmer_Feedback+0xc>
     21a:	81 30       	cpi	r24, 0x01	; 1
     21c:	31 f0       	breq	.+12     	; 0x22a <Dimmer_Feedback+0x16>
     21e:	08 95       	ret
     220:	83 30       	cpi	r24, 0x03	; 3
     222:	51 f1       	breq	.+84     	; 0x278 <Dimmer_Feedback+0x64>
     224:	84 30       	cpi	r24, 0x04	; 4
     226:	d1 f1       	breq	.+116    	; 0x29c <Dimmer_Feedback+0x88>
     228:	08 95       	ret
     22a:	80 91 37 06 	lds	r24, 0x0637	; 0x800637 <G_Dimmer_Value>
     22e:	8a 3f       	cpi	r24, 0xFA	; 250
     230:	29 f4       	brne	.+10     	; 0x23c <Dimmer_Feedback+0x28>
     232:	81 ef       	ldi	r24, 0xF1	; 241
     234:	90 e0       	ldi	r25, 0x00	; 0
     236:	0e 94 e8 0b 	call	0x17d0	; 0x17d0 <UART_Send_String_Polling_8>
     23a:	08 95       	ret
     23c:	8a 3f       	cpi	r24, 0xFA	; 250
     23e:	08 f0       	brcs	.+2      	; 0x242 <Dimmer_Feedback+0x2e>
     240:	3f c0       	rjmp	.+126    	; 0x2c0 <Dimmer_Feedback+0xac>
     242:	8e 5c       	subi	r24, 0xCE	; 206
     244:	80 93 37 06 	sts	0x0637, r24	; 0x800637 <G_Dimmer_Value>
     248:	8e ef       	ldi	r24, 0xFE	; 254
     24a:	90 e0       	ldi	r25, 0x00	; 0
     24c:	0e 94 e8 0b 	call	0x17d0	; 0x17d0 <UART_Send_String_Polling_8>
     250:	08 95       	ret
     252:	80 91 37 06 	lds	r24, 0x0637	; 0x800637 <G_Dimmer_Value>
     256:	81 11       	cpse	r24, r1
     258:	05 c0       	rjmp	.+10     	; 0x264 <Dimmer_Feedback+0x50>
     25a:	80 e1       	ldi	r24, 0x10	; 16
     25c:	91 e0       	ldi	r25, 0x01	; 1
     25e:	0e 94 e8 0b 	call	0x17d0	; 0x17d0 <UART_Send_String_Polling_8>
     262:	08 95       	ret
     264:	88 23       	and	r24, r24
     266:	61 f1       	breq	.+88     	; 0x2c0 <Dimmer_Feedback+0xac>
     268:	82 53       	subi	r24, 0x32	; 50
     26a:	80 93 37 06 	sts	0x0637, r24	; 0x800637 <G_Dimmer_Value>
     26e:	8d e1       	ldi	r24, 0x1D	; 29
     270:	91 e0       	ldi	r25, 0x01	; 1
     272:	0e 94 e8 0b 	call	0x17d0	; 0x17d0 <UART_Send_String_Polling_8>
     276:	08 95       	ret
     278:	80 91 37 06 	lds	r24, 0x0637	; 0x800637 <G_Dimmer_Value>
     27c:	81 11       	cpse	r24, r1
     27e:	05 c0       	rjmp	.+10     	; 0x28a <Dimmer_Feedback+0x76>
     280:	8f e2       	ldi	r24, 0x2F	; 47
     282:	91 e0       	ldi	r25, 0x01	; 1
     284:	0e 94 e8 0b 	call	0x17d0	; 0x17d0 <UART_Send_String_Polling_8>
     288:	08 95       	ret
     28a:	88 23       	and	r24, r24
     28c:	c9 f0       	breq	.+50     	; 0x2c0 <Dimmer_Feedback+0xac>
     28e:	10 92 37 06 	sts	0x0637, r1	; 0x800637 <G_Dimmer_Value>
     292:	8c e3       	ldi	r24, 0x3C	; 60
     294:	91 e0       	ldi	r25, 0x01	; 1
     296:	0e 94 e8 0b 	call	0x17d0	; 0x17d0 <UART_Send_String_Polling_8>
     29a:	08 95       	ret
     29c:	80 91 37 06 	lds	r24, 0x0637	; 0x800637 <G_Dimmer_Value>
     2a0:	81 11       	cpse	r24, r1
     2a2:	08 c0       	rjmp	.+16     	; 0x2b4 <Dimmer_Feedback+0xa0>
     2a4:	8e 5c       	subi	r24, 0xCE	; 206
     2a6:	80 93 37 06 	sts	0x0637, r24	; 0x800637 <G_Dimmer_Value>
     2aa:	8e e4       	ldi	r24, 0x4E	; 78
     2ac:	91 e0       	ldi	r25, 0x01	; 1
     2ae:	0e 94 e8 0b 	call	0x17d0	; 0x17d0 <UART_Send_String_Polling_8>
     2b2:	08 95       	ret
     2b4:	88 23       	and	r24, r24
     2b6:	21 f0       	breq	.+8      	; 0x2c0 <Dimmer_Feedback+0xac>
     2b8:	8f e5       	ldi	r24, 0x5F	; 95
     2ba:	91 e0       	ldi	r25, 0x01	; 1
     2bc:	0e 94 e8 0b 	call	0x17d0	; 0x17d0 <UART_Send_String_Polling_8>
     2c0:	08 95       	ret

000002c2 <Dimmer_Off>:
}
void Dimmer_Off(){
	G_Dimmer_Value = 0;
     2c2:	10 92 37 06 	sts	0x0637, r1	; 0x800637 <G_Dimmer_Value>
     2c6:	08 95       	ret

000002c8 <Door_Feedback>:
*/

uint8 door_state = 0;// 0 is closed, 1 is open

void Door_Feedback(uint8 New_Feed){
	switch(New_Feed){
     2c8:	81 30       	cpi	r24, 0x01	; 1
     2ca:	a9 f0       	breq	.+42     	; 0x2f6 <Door_Feedback+0x2e>
     2cc:	82 30       	cpi	r24, 0x02	; 2
     2ce:	31 f5       	brne	.+76     	; 0x31c <Door_Feedback+0x54>
		case 2: 
			switch(door_state)
     2d0:	80 91 39 06 	lds	r24, 0x0639	; 0x800639 <door_state>
     2d4:	88 23       	and	r24, r24
     2d6:	19 f0       	breq	.+6      	; 0x2de <Door_Feedback+0x16>
     2d8:	81 30       	cpi	r24, 0x01	; 1
     2da:	31 f0       	breq	.+12     	; 0x2e8 <Door_Feedback+0x20>
     2dc:	08 95       	ret
			{
				case 0 :
					UART_Send_String_Polling_8("Door is Already Closed!");
     2de:	8b e6       	ldi	r24, 0x6B	; 107
     2e0:	91 e0       	ldi	r25, 0x01	; 1
     2e2:	0e 94 e8 0b 	call	0x17d0	; 0x17d0 <UART_Send_String_Polling_8>
					break;
     2e6:	08 95       	ret
				case 1:
					door_state = 0;
     2e8:	10 92 39 06 	sts	0x0639, r1	; 0x800639 <door_state>
					UART_Send_String_Polling_8("Door Closed Success!");
     2ec:	83 e8       	ldi	r24, 0x83	; 131
     2ee:	91 e0       	ldi	r25, 0x01	; 1
     2f0:	0e 94 e8 0b 	call	0x17d0	; 0x17d0 <UART_Send_String_Polling_8>
					break;
     2f4:	08 95       	ret
			}
			break;
		case 1:
			switch(door_state)
     2f6:	80 91 39 06 	lds	r24, 0x0639	; 0x800639 <door_state>
     2fa:	88 23       	and	r24, r24
     2fc:	19 f0       	breq	.+6      	; 0x304 <Door_Feedback+0x3c>
     2fe:	81 30       	cpi	r24, 0x01	; 1
     300:	49 f0       	breq	.+18     	; 0x314 <Door_Feedback+0x4c>
     302:	08 95       	ret
			{
				case 0 :
					door_state = 1;
     304:	81 e0       	ldi	r24, 0x01	; 1
     306:	80 93 39 06 	sts	0x0639, r24	; 0x800639 <door_state>
					UART_Send_String_Polling_8("Door Opened Success!");
     30a:	88 e9       	ldi	r24, 0x98	; 152
     30c:	91 e0       	ldi	r25, 0x01	; 1
     30e:	0e 94 e8 0b 	call	0x17d0	; 0x17d0 <UART_Send_String_Polling_8>
					break;
     312:	08 95       	ret
				case 1:
					
					UART_Send_String_Polling_8("Door is Already Opened!");
     314:	8d ea       	ldi	r24, 0xAD	; 173
     316:	91 e0       	ldi	r25, 0x01	; 1
     318:	0e 94 e8 0b 	call	0x17d0	; 0x17d0 <UART_Send_String_Polling_8>
     31c:	08 95       	ret

0000031e <__vector_7>:
			break;	
	}
}

ISR(TIMER1_COMPA_vect) // Timer1 compare match interrupt
{
     31e:	1f 92       	push	r1
     320:	0f 92       	push	r0
     322:	0f b6       	in	r0, 0x3f	; 63
     324:	0f 92       	push	r0
     326:	11 24       	eor	r1, r1
     328:	2f 93       	push	r18
     32a:	3f 93       	push	r19
     32c:	4f 93       	push	r20
     32e:	5f 93       	push	r21
     330:	6f 93       	push	r22
     332:	7f 93       	push	r23
     334:	8f 93       	push	r24
     336:	9f 93       	push	r25
     338:	af 93       	push	r26
     33a:	bf 93       	push	r27
     33c:	ef 93       	push	r30
     33e:	ff 93       	push	r31
	static uint8 counter = 0;
	// Start if counter = 0 by making Servo Pin high
	if(counter==0){DIO_Set_Pin_Output(PORTDx,Pin7,High);}
     340:	80 91 38 06 	lds	r24, 0x0638	; 0x800638 <counter.1900>
     344:	81 11       	cpse	r24, r1
     346:	06 c0       	rjmp	.+12     	; 0x354 <__vector_7+0x36>
     348:	41 e0       	ldi	r20, 0x01	; 1
     34a:	67 e0       	ldi	r22, 0x07	; 7
     34c:	83 e0       	ldi	r24, 0x03	; 3
     34e:	0e 94 92 0a 	call	0x1524	; 0x1524 <DIO_Set_Pin_Output>
     352:	17 c0       	rjmp	.+46     	; 0x382 <__vector_7+0x64>
	else if(counter == 1){
     354:	81 30       	cpi	r24, 0x01	; 1
     356:	51 f4       	brne	.+20     	; 0x36c <__vector_7+0x4e>
		if(door_state == 0){
     358:	80 91 39 06 	lds	r24, 0x0639	; 0x800639 <door_state>
     35c:	81 11       	cpse	r24, r1
     35e:	11 c0       	rjmp	.+34     	; 0x382 <__vector_7+0x64>
			DIO_Set_Pin_Output(PORTDx,Pin7,Low);
     360:	40 e0       	ldi	r20, 0x00	; 0
     362:	67 e0       	ldi	r22, 0x07	; 7
     364:	83 e0       	ldi	r24, 0x03	; 3
     366:	0e 94 92 0a 	call	0x1524	; 0x1524 <DIO_Set_Pin_Output>
     36a:	0b c0       	rjmp	.+22     	; 0x382 <__vector_7+0x64>
		}
	}
	else if(counter == 5){
     36c:	85 30       	cpi	r24, 0x05	; 5
     36e:	49 f4       	brne	.+18     	; 0x382 <__vector_7+0x64>
		if(door_state == 1){
     370:	80 91 39 06 	lds	r24, 0x0639	; 0x800639 <door_state>
     374:	81 30       	cpi	r24, 0x01	; 1
     376:	29 f4       	brne	.+10     	; 0x382 <__vector_7+0x64>
			DIO_Set_Pin_Output(PORTDx,Pin7,Low);
     378:	40 e0       	ldi	r20, 0x00	; 0
     37a:	67 e0       	ldi	r22, 0x07	; 7
     37c:	83 e0       	ldi	r24, 0x03	; 3
     37e:	0e 94 92 0a 	call	0x1524	; 0x1524 <DIO_Set_Pin_Output>
		}
	}
	if(counter<40){counter++;}
     382:	80 91 38 06 	lds	r24, 0x0638	; 0x800638 <counter.1900>
     386:	88 32       	cpi	r24, 0x28	; 40
     388:	20 f4       	brcc	.+8      	; 0x392 <__vector_7+0x74>
     38a:	8f 5f       	subi	r24, 0xFF	; 255
     38c:	80 93 38 06 	sts	0x0638, r24	; 0x800638 <counter.1900>
     390:	02 c0       	rjmp	.+4      	; 0x396 <__vector_7+0x78>
	else {counter = 0;}
     392:	10 92 38 06 	sts	0x0638, r1	; 0x800638 <counter.1900>
}
     396:	ff 91       	pop	r31
     398:	ef 91       	pop	r30
     39a:	bf 91       	pop	r27
     39c:	af 91       	pop	r26
     39e:	9f 91       	pop	r25
     3a0:	8f 91       	pop	r24
     3a2:	7f 91       	pop	r23
     3a4:	6f 91       	pop	r22
     3a6:	5f 91       	pop	r21
     3a8:	4f 91       	pop	r20
     3aa:	3f 91       	pop	r19
     3ac:	2f 91       	pop	r18
     3ae:	0f 90       	pop	r0
     3b0:	0f be       	out	0x3f, r0	; 63
     3b2:	0f 90       	pop	r0
     3b4:	1f 90       	pop	r1
     3b6:	18 95       	reti

000003b8 <Servo_Init>:


void Servo_Init(){
	DIO_Set_Pin_Direction(PORTDx,Pin7,Out);
     3b8:	41 e0       	ldi	r20, 0x01	; 1
     3ba:	67 e0       	ldi	r22, 0x07	; 7
     3bc:	83 e0       	ldi	r24, 0x03	; 3
     3be:	0e 94 22 0a 	call	0x1444	; 0x1444 <DIO_Set_Pin_Direction>
	DIO_Set_Pin_Output(PORTDx,Pin7,Low);
     3c2:	40 e0       	ldi	r20, 0x00	; 0
     3c4:	67 e0       	ldi	r22, 0x07	; 7
     3c6:	83 e0       	ldi	r24, 0x03	; 3
     3c8:	0e 94 92 0a 	call	0x1524	; 0x1524 <DIO_Set_Pin_Output>
	// Set the Prescaler to 8
	// Set WGM12 to enable CTC mode
	TCCR1B_Reg |= (1 << WGM12) | (1 << CS11);
     3cc:	8e b5       	in	r24, 0x2e	; 46
     3ce:	8a 60       	ori	r24, 0x0A	; 10
     3d0:	8e bd       	out	0x2e, r24	; 46
	// Set OCR1A to generate an interrupt every 0.5 ms
	// Set TOP value for 0.5ms period
	// Set OCR1A to 1000
	OCR1AH_Reg = 0x03; // High byte 00000011
     3d2:	83 e0       	ldi	r24, 0x03	; 3
     3d4:	8b bd       	out	0x2b, r24	; 43
	OCR1AL_Reg = 0xE8; // Low byte 11101000    0000001111101000
     3d6:	88 ee       	ldi	r24, 0xE8	; 232
     3d8:	8a bd       	out	0x2a, r24	; 42
	// Enable Timer/Counter1 Output Compare Match A interrupt
	TIMSK_Reg |= (1 << OCIE1A);
     3da:	89 b7       	in	r24, 0x39	; 57
     3dc:	80 61       	ori	r24, 0x10	; 16
     3de:	89 bf       	out	0x39, r24	; 57
	GIE_Enable(); // Enable global interrupts
     3e0:	0e 94 66 0b 	call	0x16cc	; 0x16cc <GIE_Enable>
     3e4:	08 95       	ret

000003e6 <EEPROM_Init>:
void EEPROM_Edit_Data(uint8 UserID,sint8 * Data, uint8 DataType){
	uint16 Marker = 0;
	if(UserID == 99) Marker = 10;
	else Marker = (UserID*20) + 10;
	// EDIT NOT COMPLETE
	EEPROM_Write_String((Marker+10),Data);
     3e6:	0e 94 88 0b 	call	0x1710	; 0x1710 <TWI_Init>
     3ea:	08 95       	ret

000003ec <EEPROM_Read_Byte>:
     3ec:	0f 93       	push	r16
     3ee:	1f 93       	push	r17
     3f0:	cf 93       	push	r28
     3f2:	df 93       	push	r29
     3f4:	8c 01       	movw	r16, r24
     3f6:	17 70       	andi	r17, 0x07	; 7
     3f8:	12 fb       	bst	r17, 2
     3fa:	cc 27       	eor	r28, r28
     3fc:	c0 f9       	bld	r28, 0
     3fe:	cc 0f       	add	r28, r28
     400:	cc 0f       	add	r28, r28
     402:	cc 0f       	add	r28, r28
     404:	11 fb       	bst	r17, 1
     406:	88 27       	eor	r24, r24
     408:	80 f9       	bld	r24, 0
     40a:	88 0f       	add	r24, r24
     40c:	88 0f       	add	r24, r24
     40e:	c8 2b       	or	r28, r24
     410:	81 2f       	mov	r24, r17
     412:	81 70       	andi	r24, 0x01	; 1
     414:	88 0f       	add	r24, r24
     416:	c8 2b       	or	r28, r24
     418:	c0 6a       	ori	r28, 0xA0	; 160
     41a:	d1 e0       	ldi	r29, 0x01	; 1
     41c:	dc 0f       	add	r29, r28
     41e:	0e 94 a2 0b 	call	0x1744	; 0x1744 <TWI_MSTR_Send_Start>
     422:	88 e0       	ldi	r24, 0x08	; 8
     424:	0e 94 94 0b 	call	0x1728	; 0x1728 <TWI_Check_Status>
     428:	81 30       	cpi	r24, 0x01	; 1
     42a:	31 f5       	brne	.+76     	; 0x478 <__EEPROM_REGION_LENGTH__+0x78>
     42c:	8c 2f       	mov	r24, r28
     42e:	0e 94 b4 0b 	call	0x1768	; 0x1768 <TWI_Send_Data>
     432:	88 e1       	ldi	r24, 0x18	; 24
     434:	0e 94 94 0b 	call	0x1728	; 0x1728 <TWI_Check_Status>
     438:	81 30       	cpi	r24, 0x01	; 1
     43a:	01 f5       	brne	.+64     	; 0x47c <__EEPROM_REGION_LENGTH__+0x7c>
     43c:	80 2f       	mov	r24, r16
     43e:	0e 94 b4 0b 	call	0x1768	; 0x1768 <TWI_Send_Data>
     442:	88 e2       	ldi	r24, 0x28	; 40
     444:	0e 94 94 0b 	call	0x1728	; 0x1728 <TWI_Check_Status>
     448:	81 30       	cpi	r24, 0x01	; 1
     44a:	d1 f4       	brne	.+52     	; 0x480 <__EEPROM_REGION_LENGTH__+0x80>
     44c:	0e 94 a2 0b 	call	0x1744	; 0x1744 <TWI_MSTR_Send_Start>
     450:	80 e1       	ldi	r24, 0x10	; 16
     452:	0e 94 94 0b 	call	0x1728	; 0x1728 <TWI_Check_Status>
     456:	81 30       	cpi	r24, 0x01	; 1
     458:	a9 f4       	brne	.+42     	; 0x484 <__EEPROM_REGION_LENGTH__+0x84>
     45a:	8d 2f       	mov	r24, r29
     45c:	0e 94 b4 0b 	call	0x1768	; 0x1768 <TWI_Send_Data>
     460:	80 e4       	ldi	r24, 0x40	; 64
     462:	0e 94 94 0b 	call	0x1728	; 0x1728 <TWI_Check_Status>
     466:	81 30       	cpi	r24, 0x01	; 1
     468:	79 f4       	brne	.+30     	; 0x488 <__EEPROM_REGION_LENGTH__+0x88>
     46a:	80 e0       	ldi	r24, 0x00	; 0
     46c:	0e 94 a8 0b 	call	0x1750	; 0x1750 <TWI_Receive_Data>
     470:	c8 2f       	mov	r28, r24
     472:	0e 94 9f 0b 	call	0x173e	; 0x173e <TWI_Send_Stop>
     476:	09 c0       	rjmp	.+18     	; 0x48a <__EEPROM_REGION_LENGTH__+0x8a>
     478:	c0 e0       	ldi	r28, 0x00	; 0
     47a:	07 c0       	rjmp	.+14     	; 0x48a <__EEPROM_REGION_LENGTH__+0x8a>
     47c:	c0 e0       	ldi	r28, 0x00	; 0
     47e:	05 c0       	rjmp	.+10     	; 0x48a <__EEPROM_REGION_LENGTH__+0x8a>
     480:	c0 e0       	ldi	r28, 0x00	; 0
     482:	03 c0       	rjmp	.+6      	; 0x48a <__EEPROM_REGION_LENGTH__+0x8a>
     484:	c0 e0       	ldi	r28, 0x00	; 0
     486:	01 c0       	rjmp	.+2      	; 0x48a <__EEPROM_REGION_LENGTH__+0x8a>
     488:	c0 e0       	ldi	r28, 0x00	; 0
     48a:	8f e5       	ldi	r24, 0x5F	; 95
     48c:	9d e6       	ldi	r25, 0x6D	; 109
     48e:	01 97       	sbiw	r24, 0x01	; 1
     490:	f1 f7       	brne	.-4      	; 0x48e <__EEPROM_REGION_LENGTH__+0x8e>
     492:	00 c0       	rjmp	.+0      	; 0x494 <__EEPROM_REGION_LENGTH__+0x94>
     494:	00 00       	nop
     496:	8c 2f       	mov	r24, r28
     498:	df 91       	pop	r29
     49a:	cf 91       	pop	r28
     49c:	1f 91       	pop	r17
     49e:	0f 91       	pop	r16
     4a0:	08 95       	ret

000004a2 <EEPROM_Write_Byte>:
     4a2:	1f 93       	push	r17
     4a4:	cf 93       	push	r28
     4a6:	df 93       	push	r29
     4a8:	d8 2f       	mov	r29, r24
     4aa:	16 2f       	mov	r17, r22
     4ac:	92 fb       	bst	r25, 2
     4ae:	88 27       	eor	r24, r24
     4b0:	80 f9       	bld	r24, 0
     4b2:	28 2f       	mov	r18, r24
     4b4:	22 0f       	add	r18, r18
     4b6:	22 0f       	add	r18, r18
     4b8:	22 0f       	add	r18, r18
     4ba:	91 fb       	bst	r25, 1
     4bc:	88 27       	eor	r24, r24
     4be:	80 f9       	bld	r24, 0
     4c0:	88 0f       	add	r24, r24
     4c2:	88 0f       	add	r24, r24
     4c4:	82 2b       	or	r24, r18
     4c6:	91 70       	andi	r25, 0x01	; 1
     4c8:	99 0f       	add	r25, r25
     4ca:	98 2b       	or	r25, r24
     4cc:	c9 2f       	mov	r28, r25
     4ce:	c0 6a       	ori	r28, 0xA0	; 160
     4d0:	0e 94 a2 0b 	call	0x1744	; 0x1744 <TWI_MSTR_Send_Start>
     4d4:	88 e0       	ldi	r24, 0x08	; 8
     4d6:	0e 94 94 0b 	call	0x1728	; 0x1728 <TWI_Check_Status>
     4da:	81 30       	cpi	r24, 0x01	; 1
     4dc:	01 f5       	brne	.+64     	; 0x51e <EEPROM_Write_Byte+0x7c>
     4de:	8c 2f       	mov	r24, r28
     4e0:	0e 94 b4 0b 	call	0x1768	; 0x1768 <TWI_Send_Data>
     4e4:	88 e1       	ldi	r24, 0x18	; 24
     4e6:	0e 94 94 0b 	call	0x1728	; 0x1728 <TWI_Check_Status>
     4ea:	81 30       	cpi	r24, 0x01	; 1
     4ec:	c1 f4       	brne	.+48     	; 0x51e <EEPROM_Write_Byte+0x7c>
     4ee:	8d 2f       	mov	r24, r29
     4f0:	0e 94 b4 0b 	call	0x1768	; 0x1768 <TWI_Send_Data>
     4f4:	88 e2       	ldi	r24, 0x28	; 40
     4f6:	0e 94 94 0b 	call	0x1728	; 0x1728 <TWI_Check_Status>
     4fa:	88 23       	and	r24, r24
     4fc:	81 f0       	breq	.+32     	; 0x51e <EEPROM_Write_Byte+0x7c>
     4fe:	81 2f       	mov	r24, r17
     500:	0e 94 b4 0b 	call	0x1768	; 0x1768 <TWI_Send_Data>
     504:	88 e2       	ldi	r24, 0x28	; 40
     506:	0e 94 94 0b 	call	0x1728	; 0x1728 <TWI_Check_Status>
     50a:	88 23       	and	r24, r24
     50c:	41 f0       	breq	.+16     	; 0x51e <EEPROM_Write_Byte+0x7c>
     50e:	0e 94 9f 0b 	call	0x173e	; 0x173e <TWI_Send_Stop>
     512:	8f e5       	ldi	r24, 0x5F	; 95
     514:	9d e6       	ldi	r25, 0x6D	; 109
     516:	01 97       	sbiw	r24, 0x01	; 1
     518:	f1 f7       	brne	.-4      	; 0x516 <EEPROM_Write_Byte+0x74>
     51a:	00 c0       	rjmp	.+0      	; 0x51c <EEPROM_Write_Byte+0x7a>
     51c:	00 00       	nop
     51e:	df 91       	pop	r29
     520:	cf 91       	pop	r28
     522:	1f 91       	pop	r17
     524:	08 95       	ret

00000526 <EEPROM_Write_String>:
     526:	ef 92       	push	r14
     528:	ff 92       	push	r15
     52a:	0f 93       	push	r16
     52c:	1f 93       	push	r17
     52e:	cf 93       	push	r28
     530:	8c 01       	movw	r16, r24
     532:	7b 01       	movw	r14, r22
     534:	c0 e0       	ldi	r28, 0x00	; 0
     536:	05 c0       	rjmp	.+10     	; 0x542 <EEPROM_Write_String+0x1c>
     538:	80 0f       	add	r24, r16
     53a:	91 1f       	adc	r25, r17
     53c:	0e 94 51 02 	call	0x4a2	; 0x4a2 <EEPROM_Write_Byte>
     540:	cf 5f       	subi	r28, 0xFF	; 255
     542:	8c 2f       	mov	r24, r28
     544:	90 e0       	ldi	r25, 0x00	; 0
     546:	f7 01       	movw	r30, r14
     548:	e8 0f       	add	r30, r24
     54a:	f9 1f       	adc	r31, r25
     54c:	60 81       	ld	r22, Z
     54e:	61 11       	cpse	r22, r1
     550:	f3 cf       	rjmp	.-26     	; 0x538 <EEPROM_Write_String+0x12>
     552:	80 0f       	add	r24, r16
     554:	91 1f       	adc	r25, r17
     556:	01 96       	adiw	r24, 0x01	; 1
     558:	0e 94 51 02 	call	0x4a2	; 0x4a2 <EEPROM_Write_Byte>
     55c:	cf 91       	pop	r28
     55e:	1f 91       	pop	r17
     560:	0f 91       	pop	r16
     562:	ff 90       	pop	r15
     564:	ef 90       	pop	r14
     566:	08 95       	ret

00000568 <EEPROM_Read_String>:
     568:	cf 92       	push	r12
     56a:	df 92       	push	r13
     56c:	ef 92       	push	r14
     56e:	ff 92       	push	r15
     570:	0f 93       	push	r16
     572:	1f 93       	push	r17
     574:	cf 93       	push	r28
     576:	6c 01       	movw	r12, r24
     578:	8b 01       	movw	r16, r22
     57a:	0e 94 f6 01 	call	0x3ec	; 0x3ec <EEPROM_Read_Byte>
     57e:	f8 01       	movw	r30, r16
     580:	80 83       	st	Z, r24
     582:	c0 e0       	ldi	r28, 0x00	; 0
     584:	0c c0       	rjmp	.+24     	; 0x59e <EEPROM_Read_String+0x36>
     586:	cf 5f       	subi	r28, 0xFF	; 255
     588:	8c 2f       	mov	r24, r28
     58a:	90 e0       	ldi	r25, 0x00	; 0
     58c:	78 01       	movw	r14, r16
     58e:	e8 0e       	add	r14, r24
     590:	f9 1e       	adc	r15, r25
     592:	8c 0d       	add	r24, r12
     594:	9d 1d       	adc	r25, r13
     596:	0e 94 f6 01 	call	0x3ec	; 0x3ec <EEPROM_Read_Byte>
     59a:	f7 01       	movw	r30, r14
     59c:	80 83       	st	Z, r24
     59e:	f8 01       	movw	r30, r16
     5a0:	ec 0f       	add	r30, r28
     5a2:	f1 1d       	adc	r31, r1
     5a4:	80 81       	ld	r24, Z
     5a6:	81 11       	cpse	r24, r1
     5a8:	ee cf       	rjmp	.-36     	; 0x586 <EEPROM_Read_String+0x1e>
     5aa:	cf 91       	pop	r28
     5ac:	1f 91       	pop	r17
     5ae:	0f 91       	pop	r16
     5b0:	ff 90       	pop	r15
     5b2:	ef 90       	pop	r14
     5b4:	df 90       	pop	r13
     5b6:	cf 90       	pop	r12
     5b8:	08 95       	ret

000005ba <EEPROM_Read_8Data>:
     5ba:	83 36       	cpi	r24, 0x63	; 99
     5bc:	31 f0       	breq	.+12     	; 0x5ca <EEPROM_Read_8Data+0x10>
     5be:	24 e1       	ldi	r18, 0x14	; 20
     5c0:	82 9f       	mul	r24, r18
     5c2:	c0 01       	movw	r24, r0
     5c4:	11 24       	eor	r1, r1
     5c6:	0a 96       	adiw	r24, 0x0a	; 10
     5c8:	02 c0       	rjmp	.+4      	; 0x5ce <EEPROM_Read_8Data+0x14>
     5ca:	8a e0       	ldi	r24, 0x0A	; 10
     5cc:	90 e0       	ldi	r25, 0x00	; 0
     5ce:	41 30       	cpi	r20, 0x01	; 1
     5d0:	19 f0       	breq	.+6      	; 0x5d8 <EEPROM_Read_8Data+0x1e>
     5d2:	42 30       	cpi	r20, 0x02	; 2
     5d4:	29 f0       	breq	.+10     	; 0x5e0 <EEPROM_Read_8Data+0x26>
     5d6:	08 95       	ret
     5d8:	01 96       	adiw	r24, 0x01	; 1
     5da:	0e 94 b4 02 	call	0x568	; 0x568 <EEPROM_Read_String>
     5de:	08 95       	ret
     5e0:	0a 96       	adiw	r24, 0x0a	; 10
     5e2:	0e 94 b4 02 	call	0x568	; 0x568 <EEPROM_Read_String>
     5e6:	08 95       	ret

000005e8 <EEPROM_Read_UserID_Exist>:
     5e8:	83 36       	cpi	r24, 0x63	; 99
     5ea:	31 f0       	breq	.+12     	; 0x5f8 <EEPROM_Read_UserID_Exist+0x10>
     5ec:	24 e1       	ldi	r18, 0x14	; 20
     5ee:	82 9f       	mul	r24, r18
     5f0:	c0 01       	movw	r24, r0
     5f2:	11 24       	eor	r1, r1
     5f4:	0a 96       	adiw	r24, 0x0a	; 10
     5f6:	02 c0       	rjmp	.+4      	; 0x5fc <EEPROM_Read_UserID_Exist+0x14>
     5f8:	8a e0       	ldi	r24, 0x0A	; 10
     5fa:	90 e0       	ldi	r25, 0x00	; 0
     5fc:	0e 94 f6 01 	call	0x3ec	; 0x3ec <EEPROM_Read_Byte>
     600:	08 95       	ret

00000602 <EEPROM_Delete_User>:
     602:	24 e1       	ldi	r18, 0x14	; 20
     604:	82 9f       	mul	r24, r18
     606:	c0 01       	movw	r24, r0
     608:	11 24       	eor	r1, r1
     60a:	60 e0       	ldi	r22, 0x00	; 0
     60c:	0a 96       	adiw	r24, 0x0a	; 10
     60e:	0e 94 51 02 	call	0x4a2	; 0x4a2 <EEPROM_Write_Byte>
     612:	08 95       	ret

00000614 <EEPROM_Find_Empty_ID>:
}


uint8 EEPROM_Find_Empty_ID(){
     614:	1f 93       	push	r17
     616:	cf 93       	push	r28
     618:	df 93       	push	r29
	for(int i=0; i<MAX_Users_Count;i++){
     61a:	c0 e0       	ldi	r28, 0x00	; 0
     61c:	d0 e0       	ldi	r29, 0x00	; 0
     61e:	07 c0       	rjmp	.+14     	; 0x62e <EEPROM_Find_Empty_ID+0x1a>
		if(EEPROM_Read_UserID_Exist(i))
     620:	1c 2f       	mov	r17, r28
     622:	8c 2f       	mov	r24, r28
     624:	0e 94 f4 02 	call	0x5e8	; 0x5e8 <EEPROM_Read_UserID_Exist>
     628:	88 23       	and	r24, r24
     62a:	41 f0       	breq	.+16     	; 0x63c <EEPROM_Find_Empty_ID+0x28>
	EEPROM_Write_String((Marker+10),Data);
}


uint8 EEPROM_Find_Empty_ID(){
	for(int i=0; i<MAX_Users_Count;i++){
     62c:	21 96       	adiw	r28, 0x01	; 1
     62e:	80 91 a9 03 	lds	r24, 0x03A9	; 0x8003a9 <MAX_Users_Count>
     632:	90 e0       	ldi	r25, 0x00	; 0
     634:	c8 17       	cp	r28, r24
     636:	d9 07       	cpc	r29, r25
     638:	9c f3       	brlt	.-26     	; 0x620 <EEPROM_Find_Empty_ID+0xc>
		if(EEPROM_Read_UserID_Exist(i))
			continue;
		else return i;
	}
	return 0;
     63a:	10 e0       	ldi	r17, 0x00	; 0
}
     63c:	81 2f       	mov	r24, r17
     63e:	df 91       	pop	r29
     640:	cf 91       	pop	r28
     642:	1f 91       	pop	r17
     644:	08 95       	ret

00000646 <EEPROM_Reg_New_User>:
void EEPROM_Reg_New_User(uint8 UserID, sint8 * Username, sint8 * Password){
     646:	ef 92       	push	r14
     648:	ff 92       	push	r15
     64a:	0f 93       	push	r16
     64c:	1f 93       	push	r17
     64e:	cf 93       	push	r28
     650:	df 93       	push	r29
     652:	8b 01       	movw	r16, r22
     654:	7a 01       	movw	r14, r20
uint16 Marker = (UserID*20) + 10;
     656:	94 e1       	ldi	r25, 0x14	; 20
     658:	89 9f       	mul	r24, r25
     65a:	e0 01       	movw	r28, r0
     65c:	11 24       	eor	r1, r1
// User does not exist, Create the user
	EEPROM_Write_Byte(Marker,UserID);
     65e:	68 2f       	mov	r22, r24
     660:	ce 01       	movw	r24, r28
     662:	0a 96       	adiw	r24, 0x0a	; 10
     664:	0e 94 51 02 	call	0x4a2	; 0x4a2 <EEPROM_Write_Byte>
	EEPROM_Write_String((Marker+1),Password);
     668:	b7 01       	movw	r22, r14
     66a:	ce 01       	movw	r24, r28
     66c:	0b 96       	adiw	r24, 0x0b	; 11
     66e:	0e 94 93 02 	call	0x526	; 0x526 <EEPROM_Write_String>
	EEPROM_Write_String((Marker+10),Username);
     672:	b8 01       	movw	r22, r16
     674:	ce 01       	movw	r24, r28
     676:	44 96       	adiw	r24, 0x14	; 20
     678:	0e 94 93 02 	call	0x526	; 0x526 <EEPROM_Write_String>
}
     67c:	df 91       	pop	r29
     67e:	cf 91       	pop	r28
     680:	1f 91       	pop	r17
     682:	0f 91       	pop	r16
     684:	ff 90       	pop	r15
     686:	ef 90       	pop	r14
     688:	08 95       	ret

0000068a <KEYPAD_Initialization>:
#include "../../MCAL/Digital_Input_Output/DIO.h"
#include "Keypad_4x4.h"


void KEYPAD_Initialization(){
	DIO_Set_Pin_Direction(COL_PORTB,COL_Pin_0,Out);
     68a:	41 e0       	ldi	r20, 0x01	; 1
     68c:	64 e0       	ldi	r22, 0x04	; 4
     68e:	81 e0       	ldi	r24, 0x01	; 1
     690:	0e 94 22 0a 	call	0x1444	; 0x1444 <DIO_Set_Pin_Direction>
	DIO_Set_Pin_Direction(COL_PORTB,COL_Pin_1,Out);
     694:	41 e0       	ldi	r20, 0x01	; 1
     696:	65 e0       	ldi	r22, 0x05	; 5
     698:	81 e0       	ldi	r24, 0x01	; 1
     69a:	0e 94 22 0a 	call	0x1444	; 0x1444 <DIO_Set_Pin_Direction>
	DIO_Set_Pin_Direction(COL_PORTB,COL_Pin_2,Out);
     69e:	41 e0       	ldi	r20, 0x01	; 1
     6a0:	66 e0       	ldi	r22, 0x06	; 6
     6a2:	81 e0       	ldi	r24, 0x01	; 1
     6a4:	0e 94 22 0a 	call	0x1444	; 0x1444 <DIO_Set_Pin_Direction>
	DIO_Set_Pin_Direction(COL_PORTB,COL_Pin_3,Out);
     6a8:	41 e0       	ldi	r20, 0x01	; 1
     6aa:	67 e0       	ldi	r22, 0x07	; 7
     6ac:	81 e0       	ldi	r24, 0x01	; 1
     6ae:	0e 94 22 0a 	call	0x1444	; 0x1444 <DIO_Set_Pin_Direction>
	DIO_Set_Pin_Direction(ROW_PORTC,ROW_Pin_0,In);
     6b2:	40 e0       	ldi	r20, 0x00	; 0
     6b4:	63 e0       	ldi	r22, 0x03	; 3
     6b6:	82 e0       	ldi	r24, 0x02	; 2
     6b8:	0e 94 22 0a 	call	0x1444	; 0x1444 <DIO_Set_Pin_Direction>
	DIO_Set_Pin_Direction(ROW_PORTC,ROW_Pin_1,In);
     6bc:	40 e0       	ldi	r20, 0x00	; 0
     6be:	64 e0       	ldi	r22, 0x04	; 4
     6c0:	82 e0       	ldi	r24, 0x02	; 2
     6c2:	0e 94 22 0a 	call	0x1444	; 0x1444 <DIO_Set_Pin_Direction>
	DIO_Set_Pin_Direction(ROW_PORTC,ROW_Pin_2,In);
     6c6:	40 e0       	ldi	r20, 0x00	; 0
     6c8:	65 e0       	ldi	r22, 0x05	; 5
     6ca:	82 e0       	ldi	r24, 0x02	; 2
     6cc:	0e 94 22 0a 	call	0x1444	; 0x1444 <DIO_Set_Pin_Direction>
	DIO_Set_Pin_Direction(ROW_PORTC,ROW_Pin_3,In);
     6d0:	40 e0       	ldi	r20, 0x00	; 0
     6d2:	66 e0       	ldi	r22, 0x06	; 6
     6d4:	82 e0       	ldi	r24, 0x02	; 2
     6d6:	0e 94 22 0a 	call	0x1444	; 0x1444 <DIO_Set_Pin_Direction>
	/// OUTPUT HIGH
	DIO_Set_Pin_Output(COL_PORTB,COL_Pin_0,High);
     6da:	41 e0       	ldi	r20, 0x01	; 1
     6dc:	64 e0       	ldi	r22, 0x04	; 4
     6de:	81 e0       	ldi	r24, 0x01	; 1
     6e0:	0e 94 92 0a 	call	0x1524	; 0x1524 <DIO_Set_Pin_Output>
	DIO_Set_Pin_Output(COL_PORTB,COL_Pin_1,High);
     6e4:	41 e0       	ldi	r20, 0x01	; 1
     6e6:	65 e0       	ldi	r22, 0x05	; 5
     6e8:	81 e0       	ldi	r24, 0x01	; 1
     6ea:	0e 94 92 0a 	call	0x1524	; 0x1524 <DIO_Set_Pin_Output>
	DIO_Set_Pin_Output(COL_PORTB,COL_Pin_2,High);
     6ee:	41 e0       	ldi	r20, 0x01	; 1
     6f0:	66 e0       	ldi	r22, 0x06	; 6
     6f2:	81 e0       	ldi	r24, 0x01	; 1
     6f4:	0e 94 92 0a 	call	0x1524	; 0x1524 <DIO_Set_Pin_Output>
	DIO_Set_Pin_Output(COL_PORTB,COL_Pin_3,High);
     6f8:	41 e0       	ldi	r20, 0x01	; 1
     6fa:	67 e0       	ldi	r22, 0x07	; 7
     6fc:	81 e0       	ldi	r24, 0x01	; 1
     6fe:	0e 94 92 0a 	call	0x1524	; 0x1524 <DIO_Set_Pin_Output>
	///PULL UP RESISTORES ON
	DIO_Set_Pin_Output(ROW_PORTC,ROW_Pin_0,High);
     702:	41 e0       	ldi	r20, 0x01	; 1
     704:	63 e0       	ldi	r22, 0x03	; 3
     706:	82 e0       	ldi	r24, 0x02	; 2
     708:	0e 94 92 0a 	call	0x1524	; 0x1524 <DIO_Set_Pin_Output>
	DIO_Set_Pin_Output(ROW_PORTC,ROW_Pin_1,High);
     70c:	41 e0       	ldi	r20, 0x01	; 1
     70e:	64 e0       	ldi	r22, 0x04	; 4
     710:	82 e0       	ldi	r24, 0x02	; 2
     712:	0e 94 92 0a 	call	0x1524	; 0x1524 <DIO_Set_Pin_Output>
	DIO_Set_Pin_Output(ROW_PORTC,ROW_Pin_2,High);
     716:	41 e0       	ldi	r20, 0x01	; 1
     718:	65 e0       	ldi	r22, 0x05	; 5
     71a:	82 e0       	ldi	r24, 0x02	; 2
     71c:	0e 94 92 0a 	call	0x1524	; 0x1524 <DIO_Set_Pin_Output>
	DIO_Set_Pin_Output(ROW_PORTC,ROW_Pin_3,High);
     720:	41 e0       	ldi	r20, 0x01	; 1
     722:	66 e0       	ldi	r22, 0x06	; 6
     724:	82 e0       	ldi	r24, 0x02	; 2
     726:	0e 94 92 0a 	call	0x1524	; 0x1524 <DIO_Set_Pin_Output>
     72a:	08 95       	ret

0000072c <KEYPAD_Get_Pressed_Key>:
}

uint8 KEYPAD_Get_Pressed_Key(){
     72c:	cf 93       	push	r28
	uint8 key = '\0';
	//KEYPAD_Initialization();
	
	/**************************		ROW 0		************************/
	DIO_Set_Pin_Output(COL_PORTB,COL_Pin_0,Low);
     72e:	40 e0       	ldi	r20, 0x00	; 0
     730:	64 e0       	ldi	r22, 0x04	; 4
     732:	81 e0       	ldi	r24, 0x01	; 1
     734:	0e 94 92 0a 	call	0x1524	; 0x1524 <DIO_Set_Pin_Output>
	DIO_Set_Pin_Output(COL_PORTB,COL_Pin_1,High);
     738:	41 e0       	ldi	r20, 0x01	; 1
     73a:	65 e0       	ldi	r22, 0x05	; 5
     73c:	81 e0       	ldi	r24, 0x01	; 1
     73e:	0e 94 92 0a 	call	0x1524	; 0x1524 <DIO_Set_Pin_Output>
	DIO_Set_Pin_Output(COL_PORTB,COL_Pin_2,High);
     742:	41 e0       	ldi	r20, 0x01	; 1
     744:	66 e0       	ldi	r22, 0x06	; 6
     746:	81 e0       	ldi	r24, 0x01	; 1
     748:	0e 94 92 0a 	call	0x1524	; 0x1524 <DIO_Set_Pin_Output>
	DIO_Set_Pin_Output(COL_PORTB,COL_Pin_3,High);
     74c:	41 e0       	ldi	r20, 0x01	; 1
     74e:	67 e0       	ldi	r22, 0x07	; 7
     750:	81 e0       	ldi	r24, 0x01	; 1
     752:	0e 94 92 0a 	call	0x1524	; 0x1524 <DIO_Set_Pin_Output>
	/*****************		Col 0		*****************/
	if(!(DIO_Get_Pin_Value(ROW_PORTC,ROW_Pin_0)))
     756:	63 e0       	ldi	r22, 0x03	; 3
     758:	82 e0       	ldi	r24, 0x02	; 2
     75a:	0e 94 38 0b 	call	0x1670	; 0x1670 <DIO_Get_Pin_Value>
     75e:	81 11       	cpse	r24, r1
     760:	08 c0       	rjmp	.+16     	; 0x772 <KEYPAD_Get_Pressed_Key+0x46>
	{
		while(!(DIO_Get_Pin_Value(ROW_PORTC,ROW_Pin_0))){}
     762:	63 e0       	ldi	r22, 0x03	; 3
     764:	82 e0       	ldi	r24, 0x02	; 2
     766:	0e 94 38 0b 	call	0x1670	; 0x1670 <DIO_Get_Pin_Value>
     76a:	88 23       	and	r24, r24
     76c:	d1 f3       	breq	.-12     	; 0x762 <KEYPAD_Get_Pressed_Key+0x36>
		key	=	Output_R_0_C_0;
     76e:	c1 e3       	ldi	r28, 0x31	; 49
     770:	2b c0       	rjmp	.+86     	; 0x7c8 <KEYPAD_Get_Pressed_Key+0x9c>
	}
	/*****************		Col 1		*****************/
	else if(!(DIO_Get_Pin_Value(ROW_PORTC,ROW_Pin_1)) )
     772:	64 e0       	ldi	r22, 0x04	; 4
     774:	82 e0       	ldi	r24, 0x02	; 2
     776:	0e 94 38 0b 	call	0x1670	; 0x1670 <DIO_Get_Pin_Value>
     77a:	81 11       	cpse	r24, r1
     77c:	08 c0       	rjmp	.+16     	; 0x78e <KEYPAD_Get_Pressed_Key+0x62>
	{
		while(!(DIO_Get_Pin_Value(ROW_PORTC,ROW_Pin_1))){}
     77e:	64 e0       	ldi	r22, 0x04	; 4
     780:	82 e0       	ldi	r24, 0x02	; 2
     782:	0e 94 38 0b 	call	0x1670	; 0x1670 <DIO_Get_Pin_Value>
     786:	88 23       	and	r24, r24
     788:	d1 f3       	breq	.-12     	; 0x77e <KEYPAD_Get_Pressed_Key+0x52>
		key	=	Output_R_0_C_1;
     78a:	c4 e3       	ldi	r28, 0x34	; 52
     78c:	1d c0       	rjmp	.+58     	; 0x7c8 <KEYPAD_Get_Pressed_Key+0x9c>
	}
	/*****************		Col 2		*****************/
	else if(!(DIO_Get_Pin_Value(ROW_PORTC,ROW_Pin_2)))
     78e:	65 e0       	ldi	r22, 0x05	; 5
     790:	82 e0       	ldi	r24, 0x02	; 2
     792:	0e 94 38 0b 	call	0x1670	; 0x1670 <DIO_Get_Pin_Value>
     796:	81 11       	cpse	r24, r1
     798:	08 c0       	rjmp	.+16     	; 0x7aa <KEYPAD_Get_Pressed_Key+0x7e>
	{
		while(!(DIO_Get_Pin_Value(ROW_PORTC,ROW_Pin_2))){}
     79a:	65 e0       	ldi	r22, 0x05	; 5
     79c:	82 e0       	ldi	r24, 0x02	; 2
     79e:	0e 94 38 0b 	call	0x1670	; 0x1670 <DIO_Get_Pin_Value>
     7a2:	88 23       	and	r24, r24
     7a4:	d1 f3       	breq	.-12     	; 0x79a <KEYPAD_Get_Pressed_Key+0x6e>
		key	=	Output_R_0_C_2;
     7a6:	c7 e3       	ldi	r28, 0x37	; 55
     7a8:	0f c0       	rjmp	.+30     	; 0x7c8 <KEYPAD_Get_Pressed_Key+0x9c>
	}
	/*****************		Col 3		*****************/
	else if(!(DIO_Get_Pin_Value(ROW_PORTC,ROW_Pin_3)))
     7aa:	66 e0       	ldi	r22, 0x06	; 6
     7ac:	82 e0       	ldi	r24, 0x02	; 2
     7ae:	0e 94 38 0b 	call	0x1670	; 0x1670 <DIO_Get_Pin_Value>
     7b2:	81 11       	cpse	r24, r1
     7b4:	08 c0       	rjmp	.+16     	; 0x7c6 <KEYPAD_Get_Pressed_Key+0x9a>
	{
		while(!(DIO_Get_Pin_Value(ROW_PORTC,ROW_Pin_3))){}
     7b6:	66 e0       	ldi	r22, 0x06	; 6
     7b8:	82 e0       	ldi	r24, 0x02	; 2
     7ba:	0e 94 38 0b 	call	0x1670	; 0x1670 <DIO_Get_Pin_Value>
     7be:	88 23       	and	r24, r24
     7c0:	d1 f3       	breq	.-12     	; 0x7b6 <KEYPAD_Get_Pressed_Key+0x8a>
		key	=	Output_R_0_C_3;
     7c2:	ca e2       	ldi	r28, 0x2A	; 42
     7c4:	01 c0       	rjmp	.+2      	; 0x7c8 <KEYPAD_Get_Pressed_Key+0x9c>
	DIO_Set_Pin_Output(ROW_PORTC,ROW_Pin_2,High);
	DIO_Set_Pin_Output(ROW_PORTC,ROW_Pin_3,High);
}

uint8 KEYPAD_Get_Pressed_Key(){
	uint8 key = '\0';
     7c6:	c0 e0       	ldi	r28, 0x00	; 0
		key	=	Output_R_0_C_3;
	}
	
	
	/**************************		ROW 1		************************/
	DIO_Set_Pin_Output(COL_PORTB,COL_Pin_0,High);
     7c8:	41 e0       	ldi	r20, 0x01	; 1
     7ca:	64 e0       	ldi	r22, 0x04	; 4
     7cc:	81 e0       	ldi	r24, 0x01	; 1
     7ce:	0e 94 92 0a 	call	0x1524	; 0x1524 <DIO_Set_Pin_Output>
	DIO_Set_Pin_Output(COL_PORTB,COL_Pin_1,Low);
     7d2:	40 e0       	ldi	r20, 0x00	; 0
     7d4:	65 e0       	ldi	r22, 0x05	; 5
     7d6:	81 e0       	ldi	r24, 0x01	; 1
     7d8:	0e 94 92 0a 	call	0x1524	; 0x1524 <DIO_Set_Pin_Output>
	DIO_Set_Pin_Output(COL_PORTB,COL_Pin_2,High);
     7dc:	41 e0       	ldi	r20, 0x01	; 1
     7de:	66 e0       	ldi	r22, 0x06	; 6
     7e0:	81 e0       	ldi	r24, 0x01	; 1
     7e2:	0e 94 92 0a 	call	0x1524	; 0x1524 <DIO_Set_Pin_Output>
	DIO_Set_Pin_Output(COL_PORTB,COL_Pin_3,High);
     7e6:	41 e0       	ldi	r20, 0x01	; 1
     7e8:	67 e0       	ldi	r22, 0x07	; 7
     7ea:	81 e0       	ldi	r24, 0x01	; 1
     7ec:	0e 94 92 0a 	call	0x1524	; 0x1524 <DIO_Set_Pin_Output>
	/*****************		Col 0		*****************/
	if(!(DIO_Get_Pin_Value(ROW_PORTC,ROW_Pin_0)) )
     7f0:	63 e0       	ldi	r22, 0x03	; 3
     7f2:	82 e0       	ldi	r24, 0x02	; 2
     7f4:	0e 94 38 0b 	call	0x1670	; 0x1670 <DIO_Get_Pin_Value>
     7f8:	81 11       	cpse	r24, r1
     7fa:	08 c0       	rjmp	.+16     	; 0x80c <__DATA_REGION_LENGTH__+0xc>
	{
		while(!(DIO_Get_Pin_Value(ROW_PORTC,ROW_Pin_0))){}
     7fc:	63 e0       	ldi	r22, 0x03	; 3
     7fe:	82 e0       	ldi	r24, 0x02	; 2
     800:	0e 94 38 0b 	call	0x1670	; 0x1670 <DIO_Get_Pin_Value>
     804:	88 23       	and	r24, r24
     806:	d1 f3       	breq	.-12     	; 0x7fc <KEYPAD_Get_Pressed_Key+0xd0>
		key	=	Output_R_1_C_0;
     808:	c2 e3       	ldi	r28, 0x32	; 50
     80a:	29 c0       	rjmp	.+82     	; 0x85e <__DATA_REGION_LENGTH__+0x5e>
	}
	/*****************		Col 1		*****************/
	else if(!(DIO_Get_Pin_Value(ROW_PORTC,ROW_Pin_1)) ){
     80c:	64 e0       	ldi	r22, 0x04	; 4
     80e:	82 e0       	ldi	r24, 0x02	; 2
     810:	0e 94 38 0b 	call	0x1670	; 0x1670 <DIO_Get_Pin_Value>
     814:	81 11       	cpse	r24, r1
     816:	08 c0       	rjmp	.+16     	; 0x828 <__DATA_REGION_LENGTH__+0x28>
		while(!(DIO_Get_Pin_Value(ROW_PORTC,ROW_Pin_1))){}
     818:	64 e0       	ldi	r22, 0x04	; 4
     81a:	82 e0       	ldi	r24, 0x02	; 2
     81c:	0e 94 38 0b 	call	0x1670	; 0x1670 <DIO_Get_Pin_Value>
     820:	88 23       	and	r24, r24
     822:	d1 f3       	breq	.-12     	; 0x818 <__DATA_REGION_LENGTH__+0x18>
		key	=	Output_R_1_C_1;
     824:	c5 e3       	ldi	r28, 0x35	; 53
     826:	1b c0       	rjmp	.+54     	; 0x85e <__DATA_REGION_LENGTH__+0x5e>
	}
	/*****************		Col 2		*****************/
	else if(!(DIO_Get_Pin_Value(ROW_PORTC,ROW_Pin_2)) )
     828:	65 e0       	ldi	r22, 0x05	; 5
     82a:	82 e0       	ldi	r24, 0x02	; 2
     82c:	0e 94 38 0b 	call	0x1670	; 0x1670 <DIO_Get_Pin_Value>
     830:	81 11       	cpse	r24, r1
     832:	08 c0       	rjmp	.+16     	; 0x844 <__DATA_REGION_LENGTH__+0x44>
	{
		while(!(DIO_Get_Pin_Value(ROW_PORTC,ROW_Pin_2))){}
     834:	65 e0       	ldi	r22, 0x05	; 5
     836:	82 e0       	ldi	r24, 0x02	; 2
     838:	0e 94 38 0b 	call	0x1670	; 0x1670 <DIO_Get_Pin_Value>
     83c:	88 23       	and	r24, r24
     83e:	d1 f3       	breq	.-12     	; 0x834 <__DATA_REGION_LENGTH__+0x34>
		key	=	Output_R_1_C_2;
     840:	c8 e3       	ldi	r28, 0x38	; 56
     842:	0d c0       	rjmp	.+26     	; 0x85e <__DATA_REGION_LENGTH__+0x5e>
	}
	/*****************		Col 3		*****************/
	else if(!(DIO_Get_Pin_Value(ROW_PORTC,ROW_Pin_3)) )
     844:	66 e0       	ldi	r22, 0x06	; 6
     846:	82 e0       	ldi	r24, 0x02	; 2
     848:	0e 94 38 0b 	call	0x1670	; 0x1670 <DIO_Get_Pin_Value>
     84c:	81 11       	cpse	r24, r1
     84e:	07 c0       	rjmp	.+14     	; 0x85e <__DATA_REGION_LENGTH__+0x5e>
	{
		while(!(DIO_Get_Pin_Value(ROW_PORTC,ROW_Pin_3))){}
     850:	66 e0       	ldi	r22, 0x06	; 6
     852:	82 e0       	ldi	r24, 0x02	; 2
     854:	0e 94 38 0b 	call	0x1670	; 0x1670 <DIO_Get_Pin_Value>
     858:	88 23       	and	r24, r24
     85a:	d1 f3       	breq	.-12     	; 0x850 <__DATA_REGION_LENGTH__+0x50>
		key	=	Output_R_1_C_3;
     85c:	c0 e3       	ldi	r28, 0x30	; 48
	}
	
	
	/**************************		ROW 2		************************/
	DIO_Set_Pin_Output(COL_PORTB,COL_Pin_0,High);
     85e:	41 e0       	ldi	r20, 0x01	; 1
     860:	64 e0       	ldi	r22, 0x04	; 4
     862:	81 e0       	ldi	r24, 0x01	; 1
     864:	0e 94 92 0a 	call	0x1524	; 0x1524 <DIO_Set_Pin_Output>
	DIO_Set_Pin_Output(COL_PORTB,COL_Pin_1,High);
     868:	41 e0       	ldi	r20, 0x01	; 1
     86a:	65 e0       	ldi	r22, 0x05	; 5
     86c:	81 e0       	ldi	r24, 0x01	; 1
     86e:	0e 94 92 0a 	call	0x1524	; 0x1524 <DIO_Set_Pin_Output>
	DIO_Set_Pin_Output(COL_PORTB,COL_Pin_2,Low);
     872:	40 e0       	ldi	r20, 0x00	; 0
     874:	66 e0       	ldi	r22, 0x06	; 6
     876:	81 e0       	ldi	r24, 0x01	; 1
     878:	0e 94 92 0a 	call	0x1524	; 0x1524 <DIO_Set_Pin_Output>
	DIO_Set_Pin_Output(COL_PORTB,COL_Pin_3,High);
     87c:	41 e0       	ldi	r20, 0x01	; 1
     87e:	67 e0       	ldi	r22, 0x07	; 7
     880:	81 e0       	ldi	r24, 0x01	; 1
     882:	0e 94 92 0a 	call	0x1524	; 0x1524 <DIO_Set_Pin_Output>
	/*****************		Col 0		*****************/
	if(!(DIO_Get_Pin_Value(ROW_PORTC,ROW_Pin_0)) )
     886:	63 e0       	ldi	r22, 0x03	; 3
     888:	82 e0       	ldi	r24, 0x02	; 2
     88a:	0e 94 38 0b 	call	0x1670	; 0x1670 <DIO_Get_Pin_Value>
     88e:	81 11       	cpse	r24, r1
     890:	08 c0       	rjmp	.+16     	; 0x8a2 <__stack+0x43>
	{
		while(!(DIO_Get_Pin_Value(ROW_PORTC,ROW_Pin_0))){}
     892:	63 e0       	ldi	r22, 0x03	; 3
     894:	82 e0       	ldi	r24, 0x02	; 2
     896:	0e 94 38 0b 	call	0x1670	; 0x1670 <DIO_Get_Pin_Value>
     89a:	88 23       	and	r24, r24
     89c:	d1 f3       	breq	.-12     	; 0x892 <__stack+0x33>
		key	=	Output_R_2_C_0;
     89e:	c3 e3       	ldi	r28, 0x33	; 51
     8a0:	29 c0       	rjmp	.+82     	; 0x8f4 <__stack+0x95>
	}
	/*****************		Col 1		*****************/
	else if(!(DIO_Get_Pin_Value(ROW_PORTC,ROW_Pin_1)) )
     8a2:	64 e0       	ldi	r22, 0x04	; 4
     8a4:	82 e0       	ldi	r24, 0x02	; 2
     8a6:	0e 94 38 0b 	call	0x1670	; 0x1670 <DIO_Get_Pin_Value>
     8aa:	81 11       	cpse	r24, r1
     8ac:	08 c0       	rjmp	.+16     	; 0x8be <__stack+0x5f>
	{
		while(!(DIO_Get_Pin_Value(ROW_PORTC,ROW_Pin_1))){}
     8ae:	64 e0       	ldi	r22, 0x04	; 4
     8b0:	82 e0       	ldi	r24, 0x02	; 2
     8b2:	0e 94 38 0b 	call	0x1670	; 0x1670 <DIO_Get_Pin_Value>
     8b6:	88 23       	and	r24, r24
     8b8:	d1 f3       	breq	.-12     	; 0x8ae <__stack+0x4f>
		key	=	Output_R_2_C_1;
     8ba:	c6 e3       	ldi	r28, 0x36	; 54
     8bc:	1b c0       	rjmp	.+54     	; 0x8f4 <__stack+0x95>
	}
	/*****************		Col 2		*****************/
	else if(!(DIO_Get_Pin_Value(ROW_PORTC,ROW_Pin_2)) )
     8be:	65 e0       	ldi	r22, 0x05	; 5
     8c0:	82 e0       	ldi	r24, 0x02	; 2
     8c2:	0e 94 38 0b 	call	0x1670	; 0x1670 <DIO_Get_Pin_Value>
     8c6:	81 11       	cpse	r24, r1
     8c8:	08 c0       	rjmp	.+16     	; 0x8da <__stack+0x7b>
	{
		while(!(DIO_Get_Pin_Value(ROW_PORTC,ROW_Pin_2))){}
     8ca:	65 e0       	ldi	r22, 0x05	; 5
     8cc:	82 e0       	ldi	r24, 0x02	; 2
     8ce:	0e 94 38 0b 	call	0x1670	; 0x1670 <DIO_Get_Pin_Value>
     8d2:	88 23       	and	r24, r24
     8d4:	d1 f3       	breq	.-12     	; 0x8ca <__stack+0x6b>
		key	=	Output_R_2_C_2;
     8d6:	c9 e3       	ldi	r28, 0x39	; 57
     8d8:	0d c0       	rjmp	.+26     	; 0x8f4 <__stack+0x95>
	}
	/*****************		Col 3		*****************/
	else if(!(DIO_Get_Pin_Value(ROW_PORTC,ROW_Pin_3)) )
     8da:	66 e0       	ldi	r22, 0x06	; 6
     8dc:	82 e0       	ldi	r24, 0x02	; 2
     8de:	0e 94 38 0b 	call	0x1670	; 0x1670 <DIO_Get_Pin_Value>
     8e2:	81 11       	cpse	r24, r1
     8e4:	07 c0       	rjmp	.+14     	; 0x8f4 <__stack+0x95>
	{
		while(!(DIO_Get_Pin_Value(ROW_PORTC,ROW_Pin_3))){}
     8e6:	66 e0       	ldi	r22, 0x06	; 6
     8e8:	82 e0       	ldi	r24, 0x02	; 2
     8ea:	0e 94 38 0b 	call	0x1670	; 0x1670 <DIO_Get_Pin_Value>
     8ee:	88 23       	and	r24, r24
     8f0:	d1 f3       	breq	.-12     	; 0x8e6 <__stack+0x87>
		key	=	Output_R_2_C_3;
     8f2:	c3 e2       	ldi	r28, 0x23	; 35
	}


	/**************************		ROW 3		************************/
	DIO_Set_Pin_Output(COL_PORTB,COL_Pin_0,High);
     8f4:	41 e0       	ldi	r20, 0x01	; 1
     8f6:	64 e0       	ldi	r22, 0x04	; 4
     8f8:	81 e0       	ldi	r24, 0x01	; 1
     8fa:	0e 94 92 0a 	call	0x1524	; 0x1524 <DIO_Set_Pin_Output>
	DIO_Set_Pin_Output(COL_PORTB,COL_Pin_1,High);
     8fe:	41 e0       	ldi	r20, 0x01	; 1
     900:	65 e0       	ldi	r22, 0x05	; 5
     902:	81 e0       	ldi	r24, 0x01	; 1
     904:	0e 94 92 0a 	call	0x1524	; 0x1524 <DIO_Set_Pin_Output>
	DIO_Set_Pin_Output(COL_PORTB,COL_Pin_2,High);
     908:	41 e0       	ldi	r20, 0x01	; 1
     90a:	66 e0       	ldi	r22, 0x06	; 6
     90c:	81 e0       	ldi	r24, 0x01	; 1
     90e:	0e 94 92 0a 	call	0x1524	; 0x1524 <DIO_Set_Pin_Output>
	DIO_Set_Pin_Output(COL_PORTB,COL_Pin_3,Low);
     912:	40 e0       	ldi	r20, 0x00	; 0
     914:	67 e0       	ldi	r22, 0x07	; 7
     916:	81 e0       	ldi	r24, 0x01	; 1
     918:	0e 94 92 0a 	call	0x1524	; 0x1524 <DIO_Set_Pin_Output>
	/*****************		Col 0		*****************/
	if(!(DIO_Get_Pin_Value(ROW_PORTC,ROW_Pin_0)) )
     91c:	63 e0       	ldi	r22, 0x03	; 3
     91e:	82 e0       	ldi	r24, 0x02	; 2
     920:	0e 94 38 0b 	call	0x1670	; 0x1670 <DIO_Get_Pin_Value>
     924:	81 11       	cpse	r24, r1
     926:	08 c0       	rjmp	.+16     	; 0x938 <__stack+0xd9>
	{
		while(!(DIO_Get_Pin_Value(ROW_PORTC,ROW_Pin_0))){}
     928:	63 e0       	ldi	r22, 0x03	; 3
     92a:	82 e0       	ldi	r24, 0x02	; 2
     92c:	0e 94 38 0b 	call	0x1670	; 0x1670 <DIO_Get_Pin_Value>
     930:	88 23       	and	r24, r24
     932:	d1 f3       	breq	.-12     	; 0x928 <__stack+0xc9>
		key	=	Output_R_3_C_0;
     934:	c1 e4       	ldi	r28, 0x41	; 65
     936:	29 c0       	rjmp	.+82     	; 0x98a <__stack+0x12b>
	}
	/*****************		Col 1		*****************/
	else if(!(DIO_Get_Pin_Value(ROW_PORTC,ROW_Pin_1)))
     938:	64 e0       	ldi	r22, 0x04	; 4
     93a:	82 e0       	ldi	r24, 0x02	; 2
     93c:	0e 94 38 0b 	call	0x1670	; 0x1670 <DIO_Get_Pin_Value>
     940:	81 11       	cpse	r24, r1
     942:	08 c0       	rjmp	.+16     	; 0x954 <__stack+0xf5>
	{
		while(!(DIO_Get_Pin_Value(ROW_PORTC,ROW_Pin_1))){}
     944:	64 e0       	ldi	r22, 0x04	; 4
     946:	82 e0       	ldi	r24, 0x02	; 2
     948:	0e 94 38 0b 	call	0x1670	; 0x1670 <DIO_Get_Pin_Value>
     94c:	88 23       	and	r24, r24
     94e:	d1 f3       	breq	.-12     	; 0x944 <__stack+0xe5>
		key	=	Output_R_3_C_1;
     950:	c2 e4       	ldi	r28, 0x42	; 66
     952:	1b c0       	rjmp	.+54     	; 0x98a <__stack+0x12b>
	}
	/*****************		Col 2		*****************/
	else if(!(DIO_Get_Pin_Value(ROW_PORTC,ROW_Pin_2)))
     954:	65 e0       	ldi	r22, 0x05	; 5
     956:	82 e0       	ldi	r24, 0x02	; 2
     958:	0e 94 38 0b 	call	0x1670	; 0x1670 <DIO_Get_Pin_Value>
     95c:	81 11       	cpse	r24, r1
     95e:	08 c0       	rjmp	.+16     	; 0x970 <__stack+0x111>
	{
		while(!(DIO_Get_Pin_Value(ROW_PORTC,ROW_Pin_2))){}
     960:	65 e0       	ldi	r22, 0x05	; 5
     962:	82 e0       	ldi	r24, 0x02	; 2
     964:	0e 94 38 0b 	call	0x1670	; 0x1670 <DIO_Get_Pin_Value>
     968:	88 23       	and	r24, r24
     96a:	d1 f3       	breq	.-12     	; 0x960 <__stack+0x101>
		key	=	Output_R_3_C_2;
     96c:	c3 e4       	ldi	r28, 0x43	; 67
     96e:	0d c0       	rjmp	.+26     	; 0x98a <__stack+0x12b>
	}
	/*****************		Col 3		*****************/
	else if(!(DIO_Get_Pin_Value(ROW_PORTC,ROW_Pin_3)) )
     970:	66 e0       	ldi	r22, 0x06	; 6
     972:	82 e0       	ldi	r24, 0x02	; 2
     974:	0e 94 38 0b 	call	0x1670	; 0x1670 <DIO_Get_Pin_Value>
     978:	81 11       	cpse	r24, r1
     97a:	07 c0       	rjmp	.+14     	; 0x98a <__stack+0x12b>
	{
		while(!(DIO_Get_Pin_Value(ROW_PORTC,ROW_Pin_3))){}
     97c:	66 e0       	ldi	r22, 0x06	; 6
     97e:	82 e0       	ldi	r24, 0x02	; 2
     980:	0e 94 38 0b 	call	0x1670	; 0x1670 <DIO_Get_Pin_Value>
     984:	88 23       	and	r24, r24
     986:	d1 f3       	breq	.-12     	; 0x97c <__stack+0x11d>
		key	=	Output_R_3_C_3;
     988:	c4 e4       	ldi	r28, 0x44	; 68
	}
	
	/**************************		Return		************************/
	return key;
}
     98a:	8c 2f       	mov	r24, r28
     98c:	cf 91       	pop	r28
     98e:	08 95       	ret

00000990 <Send_Data_FallingEdge>:
	LCD_Send_String("(4)(5)   (9)Exit");
}
void LCD_Show_Choose_Dimmer(){
	LCD_Send_Clear_Screen();
	LCD_Send_String("Dimmer Higher(1)");
	LCD_Send_String("(0)Lower (9)Exit");
     990:	41 e0       	ldi	r20, 0x01	; 1
     992:	63 e0       	ldi	r22, 0x03	; 3
     994:	81 e0       	ldi	r24, 0x01	; 1
     996:	0e 94 92 0a 	call	0x1524	; 0x1524 <DIO_Set_Pin_Output>
     99a:	8f ed       	ldi	r24, 0xDF	; 223
     99c:	9e e2       	ldi	r25, 0x2E	; 46
     99e:	01 97       	sbiw	r24, 0x01	; 1
     9a0:	f1 f7       	brne	.-4      	; 0x99e <Send_Data_FallingEdge+0xe>
     9a2:	00 c0       	rjmp	.+0      	; 0x9a4 <Send_Data_FallingEdge+0x14>
     9a4:	00 00       	nop
     9a6:	40 e0       	ldi	r20, 0x00	; 0
     9a8:	63 e0       	ldi	r22, 0x03	; 3
     9aa:	81 e0       	ldi	r24, 0x01	; 1
     9ac:	0e 94 92 0a 	call	0x1524	; 0x1524 <DIO_Set_Pin_Output>
     9b0:	8f ed       	ldi	r24, 0xDF	; 223
     9b2:	9e e2       	ldi	r25, 0x2E	; 46
     9b4:	01 97       	sbiw	r24, 0x01	; 1
     9b6:	f1 f7       	brne	.-4      	; 0x9b4 <Send_Data_FallingEdge+0x24>
     9b8:	00 c0       	rjmp	.+0      	; 0x9ba <Send_Data_FallingEdge+0x2a>
     9ba:	00 00       	nop
     9bc:	08 95       	ret

000009be <LCD_Send_Cmd>:
     9be:	cf 93       	push	r28
     9c0:	c8 2f       	mov	r28, r24
     9c2:	40 e0       	ldi	r20, 0x00	; 0
     9c4:	61 e0       	ldi	r22, 0x01	; 1
     9c6:	81 e0       	ldi	r24, 0x01	; 1
     9c8:	0e 94 92 0a 	call	0x1524	; 0x1524 <DIO_Set_Pin_Output>
     9cc:	40 e0       	ldi	r20, 0x00	; 0
     9ce:	62 e0       	ldi	r22, 0x02	; 2
     9d0:	81 e0       	ldi	r24, 0x01	; 1
     9d2:	0e 94 92 0a 	call	0x1524	; 0x1524 <DIO_Set_Pin_Output>
     9d6:	c4 fb       	bst	r28, 4
     9d8:	44 27       	eor	r20, r20
     9da:	40 f9       	bld	r20, 0
     9dc:	64 e0       	ldi	r22, 0x04	; 4
     9de:	80 e0       	ldi	r24, 0x00	; 0
     9e0:	0e 94 92 0a 	call	0x1524	; 0x1524 <DIO_Set_Pin_Output>
     9e4:	c5 fb       	bst	r28, 5
     9e6:	44 27       	eor	r20, r20
     9e8:	40 f9       	bld	r20, 0
     9ea:	65 e0       	ldi	r22, 0x05	; 5
     9ec:	80 e0       	ldi	r24, 0x00	; 0
     9ee:	0e 94 92 0a 	call	0x1524	; 0x1524 <DIO_Set_Pin_Output>
     9f2:	c6 fb       	bst	r28, 6
     9f4:	44 27       	eor	r20, r20
     9f6:	40 f9       	bld	r20, 0
     9f8:	66 e0       	ldi	r22, 0x06	; 6
     9fa:	80 e0       	ldi	r24, 0x00	; 0
     9fc:	0e 94 92 0a 	call	0x1524	; 0x1524 <DIO_Set_Pin_Output>
     a00:	4c 2f       	mov	r20, r28
     a02:	44 1f       	adc	r20, r20
     a04:	44 27       	eor	r20, r20
     a06:	44 1f       	adc	r20, r20
     a08:	67 e0       	ldi	r22, 0x07	; 7
     a0a:	80 e0       	ldi	r24, 0x00	; 0
     a0c:	0e 94 92 0a 	call	0x1524	; 0x1524 <DIO_Set_Pin_Output>
     a10:	0e 94 c8 04 	call	0x990	; 0x990 <Send_Data_FallingEdge>
     a14:	8f e1       	ldi	r24, 0x1F	; 31
     a16:	9e e4       	ldi	r25, 0x4E	; 78
     a18:	01 97       	sbiw	r24, 0x01	; 1
     a1a:	f1 f7       	brne	.-4      	; 0xa18 <LCD_Send_Cmd+0x5a>
     a1c:	00 c0       	rjmp	.+0      	; 0xa1e <LCD_Send_Cmd+0x60>
     a1e:	00 00       	nop
     a20:	4c 2f       	mov	r20, r28
     a22:	41 70       	andi	r20, 0x01	; 1
     a24:	64 e0       	ldi	r22, 0x04	; 4
     a26:	80 e0       	ldi	r24, 0x00	; 0
     a28:	0e 94 92 0a 	call	0x1524	; 0x1524 <DIO_Set_Pin_Output>
     a2c:	c1 fb       	bst	r28, 1
     a2e:	44 27       	eor	r20, r20
     a30:	40 f9       	bld	r20, 0
     a32:	65 e0       	ldi	r22, 0x05	; 5
     a34:	80 e0       	ldi	r24, 0x00	; 0
     a36:	0e 94 92 0a 	call	0x1524	; 0x1524 <DIO_Set_Pin_Output>
     a3a:	c2 fb       	bst	r28, 2
     a3c:	44 27       	eor	r20, r20
     a3e:	40 f9       	bld	r20, 0
     a40:	66 e0       	ldi	r22, 0x06	; 6
     a42:	80 e0       	ldi	r24, 0x00	; 0
     a44:	0e 94 92 0a 	call	0x1524	; 0x1524 <DIO_Set_Pin_Output>
     a48:	c3 fb       	bst	r28, 3
     a4a:	44 27       	eor	r20, r20
     a4c:	40 f9       	bld	r20, 0
     a4e:	67 e0       	ldi	r22, 0x07	; 7
     a50:	80 e0       	ldi	r24, 0x00	; 0
     a52:	0e 94 92 0a 	call	0x1524	; 0x1524 <DIO_Set_Pin_Output>
     a56:	0e 94 c8 04 	call	0x990	; 0x990 <Send_Data_FallingEdge>
     a5a:	8f e1       	ldi	r24, 0x1F	; 31
     a5c:	9e e4       	ldi	r25, 0x4E	; 78
     a5e:	01 97       	sbiw	r24, 0x01	; 1
     a60:	f1 f7       	brne	.-4      	; 0xa5e <LCD_Send_Cmd+0xa0>
     a62:	00 c0       	rjmp	.+0      	; 0xa64 <LCD_Send_Cmd+0xa6>
     a64:	00 00       	nop
     a66:	cf 91       	pop	r28
     a68:	08 95       	ret

00000a6a <LCD_Init>:
     a6a:	41 e0       	ldi	r20, 0x01	; 1
     a6c:	61 e0       	ldi	r22, 0x01	; 1
     a6e:	81 e0       	ldi	r24, 0x01	; 1
     a70:	0e 94 22 0a 	call	0x1444	; 0x1444 <DIO_Set_Pin_Direction>
     a74:	41 e0       	ldi	r20, 0x01	; 1
     a76:	62 e0       	ldi	r22, 0x02	; 2
     a78:	81 e0       	ldi	r24, 0x01	; 1
     a7a:	0e 94 22 0a 	call	0x1444	; 0x1444 <DIO_Set_Pin_Direction>
     a7e:	41 e0       	ldi	r20, 0x01	; 1
     a80:	63 e0       	ldi	r22, 0x03	; 3
     a82:	81 e0       	ldi	r24, 0x01	; 1
     a84:	0e 94 22 0a 	call	0x1444	; 0x1444 <DIO_Set_Pin_Direction>
     a88:	41 e0       	ldi	r20, 0x01	; 1
     a8a:	64 e0       	ldi	r22, 0x04	; 4
     a8c:	80 e0       	ldi	r24, 0x00	; 0
     a8e:	0e 94 22 0a 	call	0x1444	; 0x1444 <DIO_Set_Pin_Direction>
     a92:	41 e0       	ldi	r20, 0x01	; 1
     a94:	65 e0       	ldi	r22, 0x05	; 5
     a96:	80 e0       	ldi	r24, 0x00	; 0
     a98:	0e 94 22 0a 	call	0x1444	; 0x1444 <DIO_Set_Pin_Direction>
     a9c:	41 e0       	ldi	r20, 0x01	; 1
     a9e:	66 e0       	ldi	r22, 0x06	; 6
     aa0:	80 e0       	ldi	r24, 0x00	; 0
     aa2:	0e 94 22 0a 	call	0x1444	; 0x1444 <DIO_Set_Pin_Direction>
     aa6:	41 e0       	ldi	r20, 0x01	; 1
     aa8:	67 e0       	ldi	r22, 0x07	; 7
     aaa:	80 e0       	ldi	r24, 0x00	; 0
     aac:	0e 94 22 0a 	call	0x1444	; 0x1444 <DIO_Set_Pin_Direction>
     ab0:	2f e7       	ldi	r18, 0x7F	; 127
     ab2:	85 eb       	ldi	r24, 0xB5	; 181
     ab4:	91 e0       	ldi	r25, 0x01	; 1
     ab6:	21 50       	subi	r18, 0x01	; 1
     ab8:	80 40       	sbci	r24, 0x00	; 0
     aba:	90 40       	sbci	r25, 0x00	; 0
     abc:	e1 f7       	brne	.-8      	; 0xab6 <LCD_Init+0x4c>
     abe:	00 c0       	rjmp	.+0      	; 0xac0 <LCD_Init+0x56>
     ac0:	00 00       	nop
     ac2:	83 e3       	ldi	r24, 0x33	; 51
     ac4:	0e 94 df 04 	call	0x9be	; 0x9be <LCD_Send_Cmd>
     ac8:	8f e3       	ldi	r24, 0x3F	; 63
     aca:	9f e1       	ldi	r25, 0x1F	; 31
     acc:	01 97       	sbiw	r24, 0x01	; 1
     ace:	f1 f7       	brne	.-4      	; 0xacc <LCD_Init+0x62>
     ad0:	00 c0       	rjmp	.+0      	; 0xad2 <LCD_Init+0x68>
     ad2:	00 00       	nop
     ad4:	82 e3       	ldi	r24, 0x32	; 50
     ad6:	0e 94 df 04 	call	0x9be	; 0x9be <LCD_Send_Cmd>
     ada:	8f e3       	ldi	r24, 0x3F	; 63
     adc:	9f e1       	ldi	r25, 0x1F	; 31
     ade:	01 97       	sbiw	r24, 0x01	; 1
     ae0:	f1 f7       	brne	.-4      	; 0xade <LCD_Init+0x74>
     ae2:	00 c0       	rjmp	.+0      	; 0xae4 <LCD_Init+0x7a>
     ae4:	00 00       	nop
     ae6:	88 e2       	ldi	r24, 0x28	; 40
     ae8:	0e 94 df 04 	call	0x9be	; 0x9be <LCD_Send_Cmd>
     aec:	8f e3       	ldi	r24, 0x3F	; 63
     aee:	9f e1       	ldi	r25, 0x1F	; 31
     af0:	01 97       	sbiw	r24, 0x01	; 1
     af2:	f1 f7       	brne	.-4      	; 0xaf0 <LCD_Init+0x86>
     af4:	00 c0       	rjmp	.+0      	; 0xaf6 <LCD_Init+0x8c>
     af6:	00 00       	nop
     af8:	8f e0       	ldi	r24, 0x0F	; 15
     afa:	0e 94 df 04 	call	0x9be	; 0x9be <LCD_Send_Cmd>
     afe:	8f e3       	ldi	r24, 0x3F	; 63
     b00:	9f e1       	ldi	r25, 0x1F	; 31
     b02:	01 97       	sbiw	r24, 0x01	; 1
     b04:	f1 f7       	brne	.-4      	; 0xb02 <LCD_Init+0x98>
     b06:	00 c0       	rjmp	.+0      	; 0xb08 <LCD_Init+0x9e>
     b08:	00 00       	nop
     b0a:	86 e0       	ldi	r24, 0x06	; 6
     b0c:	0e 94 df 04 	call	0x9be	; 0x9be <LCD_Send_Cmd>
     b10:	8f e3       	ldi	r24, 0x3F	; 63
     b12:	9f e1       	ldi	r25, 0x1F	; 31
     b14:	01 97       	sbiw	r24, 0x01	; 1
     b16:	f1 f7       	brne	.-4      	; 0xb14 <LCD_Init+0xaa>
     b18:	00 c0       	rjmp	.+0      	; 0xb1a <LCD_Init+0xb0>
     b1a:	00 00       	nop
     b1c:	81 e0       	ldi	r24, 0x01	; 1
     b1e:	0e 94 df 04 	call	0x9be	; 0x9be <LCD_Send_Cmd>
     b22:	8f e3       	ldi	r24, 0x3F	; 63
     b24:	9f e1       	ldi	r25, 0x1F	; 31
     b26:	01 97       	sbiw	r24, 0x01	; 1
     b28:	f1 f7       	brne	.-4      	; 0xb26 <LCD_Init+0xbc>
     b2a:	00 c0       	rjmp	.+0      	; 0xb2c <LCD_Init+0xc2>
     b2c:	00 00       	nop
     b2e:	10 92 3f 06 	sts	0x063F, r1	; 0x80063f <Cursor_Position>
     b32:	08 95       	ret

00000b34 <LCD_Set_Cursor_Position>:
     b34:	cf 93       	push	r28
     b36:	df 93       	push	r29
     b38:	c8 2f       	mov	r28, r24
     b3a:	d6 2f       	mov	r29, r22
     b3c:	86 2f       	mov	r24, r22
     b3e:	90 e4       	ldi	r25, 0x40	; 64
     b40:	c9 9f       	mul	r28, r25
     b42:	80 0d       	add	r24, r0
     b44:	11 24       	eor	r1, r1
     b46:	80 68       	ori	r24, 0x80	; 128
     b48:	0e 94 df 04 	call	0x9be	; 0x9be <LCD_Send_Cmd>
     b4c:	c1 11       	cpse	r28, r1
     b4e:	05 c0       	rjmp	.+10     	; 0xb5a <LCD_Set_Cursor_Position+0x26>
     b50:	d0 31       	cpi	r29, 0x10	; 16
     b52:	18 f4       	brcc	.+6      	; 0xb5a <LCD_Set_Cursor_Position+0x26>
     b54:	d0 93 3f 06 	sts	0x063F, r29	; 0x80063f <Cursor_Position>
     b58:	07 c0       	rjmp	.+14     	; 0xb68 <LCD_Set_Cursor_Position+0x34>
     b5a:	c1 30       	cpi	r28, 0x01	; 1
     b5c:	29 f4       	brne	.+10     	; 0xb68 <LCD_Set_Cursor_Position+0x34>
     b5e:	d0 31       	cpi	r29, 0x10	; 16
     b60:	18 f4       	brcc	.+6      	; 0xb68 <LCD_Set_Cursor_Position+0x34>
     b62:	d0 5f       	subi	r29, 0xF0	; 240
     b64:	d0 93 3f 06 	sts	0x063F, r29	; 0x80063f <Cursor_Position>
     b68:	df 91       	pop	r29
     b6a:	cf 91       	pop	r28
     b6c:	08 95       	ret

00000b6e <LCD_Send_Clear_Screen>:
     b6e:	81 e0       	ldi	r24, 0x01	; 1
     b70:	0e 94 df 04 	call	0x9be	; 0x9be <LCD_Send_Cmd>
     b74:	8f e3       	ldi	r24, 0x3F	; 63
     b76:	9f e1       	ldi	r25, 0x1F	; 31
     b78:	01 97       	sbiw	r24, 0x01	; 1
     b7a:	f1 f7       	brne	.-4      	; 0xb78 <LCD_Send_Clear_Screen+0xa>
     b7c:	00 c0       	rjmp	.+0      	; 0xb7e <LCD_Send_Clear_Screen+0x10>
     b7e:	00 00       	nop
     b80:	10 92 3f 06 	sts	0x063F, r1	; 0x80063f <Cursor_Position>
     b84:	08 95       	ret

00000b86 <LCD_Position_Handler>:
     b86:	cf 93       	push	r28
     b88:	c8 2f       	mov	r28, r24
     b8a:	81 11       	cpse	r24, r1
     b8c:	22 c0       	rjmp	.+68     	; 0xbd2 <LCD_Position_Handler+0x4c>
     b8e:	80 91 3f 06 	lds	r24, 0x063F	; 0x80063f <Cursor_Position>
     b92:	8f 30       	cpi	r24, 0x0F	; 15
     b94:	20 f4       	brcc	.+8      	; 0xb9e <LCD_Position_Handler+0x18>
     b96:	8f 5f       	subi	r24, 0xFF	; 255
     b98:	80 93 3f 06 	sts	0x063F, r24	; 0x80063f <Cursor_Position>
     b9c:	1a c0       	rjmp	.+52     	; 0xbd2 <LCD_Position_Handler+0x4c>
     b9e:	8f 30       	cpi	r24, 0x0F	; 15
     ba0:	41 f4       	brne	.+16     	; 0xbb2 <LCD_Position_Handler+0x2c>
     ba2:	8f 5f       	subi	r24, 0xFF	; 255
     ba4:	80 93 3f 06 	sts	0x063F, r24	; 0x80063f <Cursor_Position>
     ba8:	60 e0       	ldi	r22, 0x00	; 0
     baa:	81 e0       	ldi	r24, 0x01	; 1
     bac:	0e 94 9a 05 	call	0xb34	; 0xb34 <LCD_Set_Cursor_Position>
     bb0:	10 c0       	rjmp	.+32     	; 0xbd2 <LCD_Position_Handler+0x4c>
     bb2:	90 ef       	ldi	r25, 0xF0	; 240
     bb4:	98 0f       	add	r25, r24
     bb6:	9f 30       	cpi	r25, 0x0F	; 15
     bb8:	20 f4       	brcc	.+8      	; 0xbc2 <LCD_Position_Handler+0x3c>
     bba:	8f 5f       	subi	r24, 0xFF	; 255
     bbc:	80 93 3f 06 	sts	0x063F, r24	; 0x80063f <Cursor_Position>
     bc0:	08 c0       	rjmp	.+16     	; 0xbd2 <LCD_Position_Handler+0x4c>
     bc2:	8f 31       	cpi	r24, 0x1F	; 31
     bc4:	31 f4       	brne	.+12     	; 0xbd2 <LCD_Position_Handler+0x4c>
     bc6:	10 92 3f 06 	sts	0x063F, r1	; 0x80063f <Cursor_Position>
     bca:	60 e0       	ldi	r22, 0x00	; 0
     bcc:	80 e0       	ldi	r24, 0x00	; 0
     bce:	0e 94 9a 05 	call	0xb34	; 0xb34 <LCD_Set_Cursor_Position>
     bd2:	c1 30       	cpi	r28, 0x01	; 1
     bd4:	e9 f4       	brne	.+58     	; 0xc10 <LCD_Position_Handler+0x8a>
     bd6:	80 91 3f 06 	lds	r24, 0x063F	; 0x80063f <Cursor_Position>
     bda:	9f ef       	ldi	r25, 0xFF	; 255
     bdc:	98 0f       	add	r25, r24
     bde:	9f 30       	cpi	r25, 0x0F	; 15
     be0:	18 f4       	brcc	.+6      	; 0xbe8 <LCD_Position_Handler+0x62>
     be2:	90 93 3f 06 	sts	0x063F, r25	; 0x80063f <Cursor_Position>
     be6:	14 c0       	rjmp	.+40     	; 0xc10 <LCD_Position_Handler+0x8a>
     be8:	80 31       	cpi	r24, 0x10	; 16
     bea:	29 f4       	brne	.+10     	; 0xbf6 <LCD_Position_Handler+0x70>
     bec:	6f e0       	ldi	r22, 0x0F	; 15
     bee:	80 e0       	ldi	r24, 0x00	; 0
     bf0:	0e 94 9a 05 	call	0xb34	; 0xb34 <LCD_Set_Cursor_Position>
     bf4:	0d c0       	rjmp	.+26     	; 0xc10 <LCD_Position_Handler+0x8a>
     bf6:	2f ee       	ldi	r18, 0xEF	; 239
     bf8:	28 0f       	add	r18, r24
     bfa:	2f 30       	cpi	r18, 0x0F	; 15
     bfc:	18 f4       	brcc	.+6      	; 0xc04 <LCD_Position_Handler+0x7e>
     bfe:	90 93 3f 06 	sts	0x063F, r25	; 0x80063f <Cursor_Position>
     c02:	06 c0       	rjmp	.+12     	; 0xc10 <LCD_Position_Handler+0x8a>
     c04:	81 11       	cpse	r24, r1
     c06:	04 c0       	rjmp	.+8      	; 0xc10 <LCD_Position_Handler+0x8a>
     c08:	6f e0       	ldi	r22, 0x0F	; 15
     c0a:	81 e0       	ldi	r24, 0x01	; 1
     c0c:	0e 94 9a 05 	call	0xb34	; 0xb34 <LCD_Set_Cursor_Position>
     c10:	cf 91       	pop	r28
     c12:	08 95       	ret

00000c14 <LCD_Send_Char>:
     c14:	cf 93       	push	r28
     c16:	90 ee       	ldi	r25, 0xE0	; 224
     c18:	98 0f       	add	r25, r24
     c1a:	9e 35       	cpi	r25, 0x5E	; 94
     c1c:	08 f0       	brcs	.+2      	; 0xc20 <LCD_Send_Char+0xc>
     c1e:	56 c0       	rjmp	.+172    	; 0xccc <LCD_Send_Char+0xb8>
     c20:	c8 2f       	mov	r28, r24
     c22:	41 e0       	ldi	r20, 0x01	; 1
     c24:	61 e0       	ldi	r22, 0x01	; 1
     c26:	81 e0       	ldi	r24, 0x01	; 1
     c28:	0e 94 92 0a 	call	0x1524	; 0x1524 <DIO_Set_Pin_Output>
     c2c:	40 e0       	ldi	r20, 0x00	; 0
     c2e:	62 e0       	ldi	r22, 0x02	; 2
     c30:	81 e0       	ldi	r24, 0x01	; 1
     c32:	0e 94 92 0a 	call	0x1524	; 0x1524 <DIO_Set_Pin_Output>
     c36:	c4 fb       	bst	r28, 4
     c38:	44 27       	eor	r20, r20
     c3a:	40 f9       	bld	r20, 0
     c3c:	64 e0       	ldi	r22, 0x04	; 4
     c3e:	80 e0       	ldi	r24, 0x00	; 0
     c40:	0e 94 92 0a 	call	0x1524	; 0x1524 <DIO_Set_Pin_Output>
     c44:	c5 fb       	bst	r28, 5
     c46:	44 27       	eor	r20, r20
     c48:	40 f9       	bld	r20, 0
     c4a:	65 e0       	ldi	r22, 0x05	; 5
     c4c:	80 e0       	ldi	r24, 0x00	; 0
     c4e:	0e 94 92 0a 	call	0x1524	; 0x1524 <DIO_Set_Pin_Output>
     c52:	c6 fb       	bst	r28, 6
     c54:	44 27       	eor	r20, r20
     c56:	40 f9       	bld	r20, 0
     c58:	66 e0       	ldi	r22, 0x06	; 6
     c5a:	80 e0       	ldi	r24, 0x00	; 0
     c5c:	0e 94 92 0a 	call	0x1524	; 0x1524 <DIO_Set_Pin_Output>
     c60:	4c 2f       	mov	r20, r28
     c62:	44 1f       	adc	r20, r20
     c64:	44 27       	eor	r20, r20
     c66:	44 1f       	adc	r20, r20
     c68:	67 e0       	ldi	r22, 0x07	; 7
     c6a:	80 e0       	ldi	r24, 0x00	; 0
     c6c:	0e 94 92 0a 	call	0x1524	; 0x1524 <DIO_Set_Pin_Output>
     c70:	0e 94 c8 04 	call	0x990	; 0x990 <Send_Data_FallingEdge>
     c74:	8f e1       	ldi	r24, 0x1F	; 31
     c76:	9e e4       	ldi	r25, 0x4E	; 78
     c78:	01 97       	sbiw	r24, 0x01	; 1
     c7a:	f1 f7       	brne	.-4      	; 0xc78 <LCD_Send_Char+0x64>
     c7c:	00 c0       	rjmp	.+0      	; 0xc7e <LCD_Send_Char+0x6a>
     c7e:	00 00       	nop
     c80:	4c 2f       	mov	r20, r28
     c82:	41 70       	andi	r20, 0x01	; 1
     c84:	64 e0       	ldi	r22, 0x04	; 4
     c86:	80 e0       	ldi	r24, 0x00	; 0
     c88:	0e 94 92 0a 	call	0x1524	; 0x1524 <DIO_Set_Pin_Output>
     c8c:	c1 fb       	bst	r28, 1
     c8e:	44 27       	eor	r20, r20
     c90:	40 f9       	bld	r20, 0
     c92:	65 e0       	ldi	r22, 0x05	; 5
     c94:	80 e0       	ldi	r24, 0x00	; 0
     c96:	0e 94 92 0a 	call	0x1524	; 0x1524 <DIO_Set_Pin_Output>
     c9a:	c2 fb       	bst	r28, 2
     c9c:	44 27       	eor	r20, r20
     c9e:	40 f9       	bld	r20, 0
     ca0:	66 e0       	ldi	r22, 0x06	; 6
     ca2:	80 e0       	ldi	r24, 0x00	; 0
     ca4:	0e 94 92 0a 	call	0x1524	; 0x1524 <DIO_Set_Pin_Output>
     ca8:	c3 fb       	bst	r28, 3
     caa:	44 27       	eor	r20, r20
     cac:	40 f9       	bld	r20, 0
     cae:	67 e0       	ldi	r22, 0x07	; 7
     cb0:	80 e0       	ldi	r24, 0x00	; 0
     cb2:	0e 94 92 0a 	call	0x1524	; 0x1524 <DIO_Set_Pin_Output>
     cb6:	0e 94 c8 04 	call	0x990	; 0x990 <Send_Data_FallingEdge>
     cba:	8f e1       	ldi	r24, 0x1F	; 31
     cbc:	9e e4       	ldi	r25, 0x4E	; 78
     cbe:	01 97       	sbiw	r24, 0x01	; 1
     cc0:	f1 f7       	brne	.-4      	; 0xcbe <LCD_Send_Char+0xaa>
     cc2:	00 c0       	rjmp	.+0      	; 0xcc4 <LCD_Send_Char+0xb0>
     cc4:	00 00       	nop
     cc6:	80 e0       	ldi	r24, 0x00	; 0
     cc8:	0e 94 c3 05 	call	0xb86	; 0xb86 <LCD_Position_Handler>
     ccc:	cf 91       	pop	r28
     cce:	08 95       	ret

00000cd0 <LCD_Cursor_Shift>:
     cd0:	cf 93       	push	r28
     cd2:	c8 2f       	mov	r28, r24
     cd4:	81 11       	cpse	r24, r1
     cd6:	0b c0       	rjmp	.+22     	; 0xcee <LCD_Cursor_Shift+0x1e>
     cd8:	80 91 3f 06 	lds	r24, 0x063F	; 0x80063f <Cursor_Position>
     cdc:	8f 31       	cpi	r24, 0x1F	; 31
     cde:	38 f4       	brcc	.+14     	; 0xcee <LCD_Cursor_Shift+0x1e>
     ce0:	84 e1       	ldi	r24, 0x14	; 20
     ce2:	0e 94 df 04 	call	0x9be	; 0x9be <LCD_Send_Cmd>
     ce6:	8c 2f       	mov	r24, r28
     ce8:	0e 94 c3 05 	call	0xb86	; 0xb86 <LCD_Position_Handler>
     cec:	08 c0       	rjmp	.+16     	; 0xcfe <LCD_Cursor_Shift+0x2e>
     cee:	c1 30       	cpi	r28, 0x01	; 1
     cf0:	31 f4       	brne	.+12     	; 0xcfe <LCD_Cursor_Shift+0x2e>
     cf2:	80 e1       	ldi	r24, 0x10	; 16
     cf4:	0e 94 df 04 	call	0x9be	; 0x9be <LCD_Send_Cmd>
     cf8:	8c 2f       	mov	r24, r28
     cfa:	0e 94 c3 05 	call	0xb86	; 0xb86 <LCD_Position_Handler>
     cfe:	cf 91       	pop	r28
     d00:	08 95       	ret

00000d02 <LCD_Delete_Last_Written>:
     d02:	81 e0       	ldi	r24, 0x01	; 1
     d04:	0e 94 68 06 	call	0xcd0	; 0xcd0 <LCD_Cursor_Shift>
     d08:	8f e3       	ldi	r24, 0x3F	; 63
     d0a:	9f e1       	ldi	r25, 0x1F	; 31
     d0c:	01 97       	sbiw	r24, 0x01	; 1
     d0e:	f1 f7       	brne	.-4      	; 0xd0c <LCD_Delete_Last_Written+0xa>
     d10:	00 c0       	rjmp	.+0      	; 0xd12 <LCD_Delete_Last_Written+0x10>
     d12:	00 00       	nop
     d14:	80 e2       	ldi	r24, 0x20	; 32
     d16:	0e 94 0a 06 	call	0xc14	; 0xc14 <LCD_Send_Char>
     d1a:	8f e3       	ldi	r24, 0x3F	; 63
     d1c:	9f e1       	ldi	r25, 0x1F	; 31
     d1e:	01 97       	sbiw	r24, 0x01	; 1
     d20:	f1 f7       	brne	.-4      	; 0xd1e <LCD_Delete_Last_Written+0x1c>
     d22:	00 c0       	rjmp	.+0      	; 0xd24 <LCD_Delete_Last_Written+0x22>
     d24:	00 00       	nop
     d26:	81 e0       	ldi	r24, 0x01	; 1
     d28:	0e 94 68 06 	call	0xcd0	; 0xcd0 <LCD_Cursor_Shift>
     d2c:	8f e3       	ldi	r24, 0x3F	; 63
     d2e:	9f e1       	ldi	r25, 0x1F	; 31
     d30:	01 97       	sbiw	r24, 0x01	; 1
     d32:	f1 f7       	brne	.-4      	; 0xd30 <LCD_Delete_Last_Written+0x2e>
     d34:	00 c0       	rjmp	.+0      	; 0xd36 <LCD_Delete_Last_Written+0x34>
     d36:	00 00       	nop
     d38:	08 95       	ret

00000d3a <LCD_Send_String>:
     d3a:	0f 93       	push	r16
     d3c:	1f 93       	push	r17
     d3e:	cf 93       	push	r28
     d40:	8c 01       	movw	r16, r24
     d42:	c0 e0       	ldi	r28, 0x00	; 0
     d44:	09 c0       	rjmp	.+18     	; 0xd58 <LCD_Send_String+0x1e>
     d46:	0e 94 0a 06 	call	0xc14	; 0xc14 <LCD_Send_Char>
     d4a:	cf 5f       	subi	r28, 0xFF	; 255
     d4c:	8f e3       	ldi	r24, 0x3F	; 63
     d4e:	9c e9       	ldi	r25, 0x9C	; 156
     d50:	01 97       	sbiw	r24, 0x01	; 1
     d52:	f1 f7       	brne	.-4      	; 0xd50 <LCD_Send_String+0x16>
     d54:	00 c0       	rjmp	.+0      	; 0xd56 <LCD_Send_String+0x1c>
     d56:	00 00       	nop
     d58:	f8 01       	movw	r30, r16
     d5a:	ec 0f       	add	r30, r28
     d5c:	f1 1d       	adc	r31, r1
     d5e:	80 81       	ld	r24, Z
     d60:	81 11       	cpse	r24, r1
     d62:	f1 cf       	rjmp	.-30     	; 0xd46 <LCD_Send_String+0xc>
     d64:	8f e1       	ldi	r24, 0x1F	; 31
     d66:	9e e4       	ldi	r25, 0x4E	; 78
     d68:	01 97       	sbiw	r24, 0x01	; 1
     d6a:	f1 f7       	brne	.-4      	; 0xd68 <LCD_Send_String+0x2e>
     d6c:	00 c0       	rjmp	.+0      	; 0xd6e <LCD_Send_String+0x34>
     d6e:	00 00       	nop
     d70:	cf 91       	pop	r28
     d72:	1f 91       	pop	r17
     d74:	0f 91       	pop	r16
     d76:	08 95       	ret

00000d78 <LCD_Show_Get_UserID>:
     d78:	0e 94 b7 05 	call	0xb6e	; 0xb6e <LCD_Send_Clear_Screen>
     d7c:	85 ec       	ldi	r24, 0xC5	; 197
     d7e:	91 e0       	ldi	r25, 0x01	; 1
     d80:	0e 94 9d 06 	call	0xd3a	; 0xd3a <LCD_Send_String>
     d84:	08 95       	ret

00000d86 <LCD_Show_Get_Password>:
     d86:	0e 94 b7 05 	call	0xb6e	; 0xb6e <LCD_Send_Clear_Screen>
     d8a:	86 ed       	ldi	r24, 0xD6	; 214
     d8c:	91 e0       	ldi	r25, 0x01	; 1
     d8e:	0e 94 9d 06 	call	0xd3a	; 0xd3a <LCD_Send_String>
     d92:	08 95       	ret

00000d94 <LCD_Show_Welcome_User>:
     d94:	0e 94 b7 05 	call	0xb6e	; 0xb6e <LCD_Send_Clear_Screen>
     d98:	87 ee       	ldi	r24, 0xE7	; 231
     d9a:	91 e0       	ldi	r25, 0x01	; 1
     d9c:	0e 94 9d 06 	call	0xd3a	; 0xd3a <LCD_Send_String>
     da0:	08 95       	ret

00000da2 <LCD_Show_AuthFailed>:
     da2:	0e 94 b7 05 	call	0xb6e	; 0xb6e <LCD_Send_Clear_Screen>
     da6:	88 ef       	ldi	r24, 0xF8	; 248
     da8:	91 e0       	ldi	r25, 0x01	; 1
     daa:	0e 94 9d 06 	call	0xd3a	; 0xd3a <LCD_Send_String>
     dae:	89 e0       	ldi	r24, 0x09	; 9
     db0:	92 e0       	ldi	r25, 0x02	; 2
     db2:	0e 94 9d 06 	call	0xd3a	; 0xd3a <LCD_Send_String>
     db6:	08 95       	ret

00000db8 <LCD_Show_Main_Options>:
     db8:	0e 94 b7 05 	call	0xb6e	; 0xb6e <LCD_Send_Clear_Screen>
     dbc:	8a e1       	ldi	r24, 0x1A	; 26
     dbe:	92 e0       	ldi	r25, 0x02	; 2
     dc0:	0e 94 9d 06 	call	0xd3a	; 0xd3a <LCD_Send_String>
     dc4:	8b e2       	ldi	r24, 0x2B	; 43
     dc6:	92 e0       	ldi	r25, 0x02	; 2
     dc8:	0e 94 9d 06 	call	0xd3a	; 0xd3a <LCD_Send_String>
     dcc:	08 95       	ret

00000dce <LCD_Show_Invalid>:
     dce:	0e 94 b7 05 	call	0xb6e	; 0xb6e <LCD_Send_Clear_Screen>
     dd2:	8c e3       	ldi	r24, 0x3C	; 60
     dd4:	92 e0       	ldi	r25, 0x02	; 2
     dd6:	0e 94 9d 06 	call	0xd3a	; 0xd3a <LCD_Send_String>
     dda:	89 e0       	ldi	r24, 0x09	; 9
     ddc:	92 e0       	ldi	r25, 0x02	; 2
     dde:	0e 94 9d 06 	call	0xd3a	; 0xd3a <LCD_Send_String>
     de2:	08 95       	ret

00000de4 <LCD_Show_Locked>:
}
void LCD_Show_Locked(){
	LCD_Send_Clear_Screen();
     de4:	0e 94 b7 05 	call	0xb6e	; 0xb6e <LCD_Send_Clear_Screen>
	LCD_Send_String("Auth Failed!    ");
     de8:	88 ef       	ldi	r24, 0xF8	; 248
     dea:	91 e0       	ldi	r25, 0x01	; 1
     dec:	0e 94 9d 06 	call	0xd3a	; 0xd3a <LCD_Send_String>
	LCD_Send_String("System Locked   ");
     df0:	81 e9       	ldi	r24, 0x91	; 145
     df2:	92 e0       	ldi	r25, 0x02	; 2
     df4:	0e 94 9d 06 	call	0xd3a	; 0xd3a <LCD_Send_String>
     df8:	08 95       	ret

00000dfa <LCD_Process>:
uint8 Release = 1;
uint16 Delayer_Counter = 0;
uint16 Delayer_ms = 2000;
uint8 LCD_g_choice1 = 0;
void LCD_Process(){
	switch(g_step){
     dfa:	e0 91 61 00 	lds	r30, 0x0061	; 0x800061 <g_step>
     dfe:	8e 2f       	mov	r24, r30
     e00:	90 e0       	ldi	r25, 0x00	; 0
     e02:	fc 01       	movw	r30, r24
     e04:	31 97       	sbiw	r30, 0x01	; 1
     e06:	e7 30       	cpi	r30, 0x07	; 7
     e08:	f1 05       	cpc	r31, r1
     e0a:	08 f0       	brcs	.+2      	; 0xe0e <LCD_Process+0x14>
     e0c:	f5 c0       	rjmp	.+490    	; 0xff8 <LCD_Process+0x1fe>
     e0e:	e6 5d       	subi	r30, 0xD6	; 214
     e10:	ff 4f       	sbci	r31, 0xFF	; 255
     e12:	0c 94 1a 0d 	jmp	0x1a34	; 0x1a34 <__tablejump2__>
		case 1:LCD_Show_Get_UserID(); g_step++; break;
     e16:	0e 94 bc 06 	call	0xd78	; 0xd78 <LCD_Show_Get_UserID>
     e1a:	80 91 61 00 	lds	r24, 0x0061	; 0x800061 <g_step>
     e1e:	8f 5f       	subi	r24, 0xFF	; 255
     e20:	80 93 61 00 	sts	0x0061, r24	; 0x800061 <g_step>
     e24:	08 95       	ret
		case 2:
			x = KEYPAD_Get_Pressed_Key();
     e26:	0e 94 96 03 	call	0x72c	; 0x72c <KEYPAD_Get_Pressed_Key>
     e2a:	80 93 3e 06 	sts	0x063E, r24	; 0x80063e <x>
			if (x == '\0') break;
     e2e:	88 23       	and	r24, r24
     e30:	09 f4       	brne	.+2      	; 0xe34 <LCD_Process+0x3a>
     e32:	e2 c0       	rjmp	.+452    	; 0xff8 <LCD_Process+0x1fe>
			if (x >= '0' && x <= '9'){
     e34:	90 ed       	ldi	r25, 0xD0	; 208
     e36:	98 0f       	add	r25, r24
     e38:	9a 30       	cpi	r25, 0x0A	; 10
     e3a:	78 f4       	brcc	.+30     	; 0xe5a <LCD_Process+0x60>
				LCD_Send_Char(x);
     e3c:	0e 94 0a 06 	call	0xc14	; 0xc14 <LCD_Send_Char>
				LCD_UserID[user_count] = x;
     e40:	80 91 3d 06 	lds	r24, 0x063D	; 0x80063d <user_count>
     e44:	e8 2f       	mov	r30, r24
     e46:	f0 e0       	ldi	r31, 0x00	; 0
     e48:	ec 5a       	subi	r30, 0xAC	; 172
     e4a:	f9 4f       	sbci	r31, 0xF9	; 249
     e4c:	90 91 3e 06 	lds	r25, 0x063E	; 0x80063e <x>
     e50:	90 83       	st	Z, r25
				user_count++;
     e52:	8f 5f       	subi	r24, 0xFF	; 255
     e54:	80 93 3d 06 	sts	0x063D, r24	; 0x80063d <user_count>
     e58:	1b c0       	rjmp	.+54     	; 0xe90 <LCD_Process+0x96>
			}else if (x == '*' && user_count > 0){
     e5a:	8a 32       	cpi	r24, 0x2A	; 42
     e5c:	89 f4       	brne	.+34     	; 0xe80 <LCD_Process+0x86>
     e5e:	90 91 3d 06 	lds	r25, 0x063D	; 0x80063d <user_count>
     e62:	99 23       	and	r25, r25
     e64:	69 f0       	breq	.+26     	; 0xe80 <LCD_Process+0x86>
				LCD_Delete_Last_Written();
     e66:	0e 94 81 06 	call	0xd02	; 0xd02 <LCD_Delete_Last_Written>
				LCD_UserID[user_count] = '\0';
     e6a:	80 91 3d 06 	lds	r24, 0x063D	; 0x80063d <user_count>
     e6e:	e8 2f       	mov	r30, r24
     e70:	f0 e0       	ldi	r31, 0x00	; 0
     e72:	ec 5a       	subi	r30, 0xAC	; 172
     e74:	f9 4f       	sbci	r31, 0xF9	; 249
     e76:	10 82       	st	Z, r1
				user_count--;
     e78:	81 50       	subi	r24, 0x01	; 1
     e7a:	80 93 3d 06 	sts	0x063D, r24	; 0x80063d <user_count>
     e7e:	08 c0       	rjmp	.+16     	; 0xe90 <LCD_Process+0x96>
			}else if (x >= 'A' && x <= 'D') {
     e80:	81 54       	subi	r24, 0x41	; 65
     e82:	84 30       	cpi	r24, 0x04	; 4
     e84:	28 f4       	brcc	.+10     	; 0xe90 <LCD_Process+0x96>
				g_step++;
     e86:	80 91 61 00 	lds	r24, 0x0061	; 0x800061 <g_step>
     e8a:	8f 5f       	subi	r24, 0xFF	; 255
     e8c:	80 93 61 00 	sts	0x0061, r24	; 0x800061 <g_step>
			}
			x = '\0';
     e90:	10 92 3e 06 	sts	0x063E, r1	; 0x80063e <x>
			break;
     e94:	08 95       	ret
		case 3:LCD_Show_Get_Password();g_step++;break;
     e96:	0e 94 c3 06 	call	0xd86	; 0xd86 <LCD_Show_Get_Password>
     e9a:	80 91 61 00 	lds	r24, 0x0061	; 0x800061 <g_step>
     e9e:	8f 5f       	subi	r24, 0xFF	; 255
     ea0:	80 93 61 00 	sts	0x0061, r24	; 0x800061 <g_step>
     ea4:	08 95       	ret
		case 4:
			// Get user Input 
			x = KEYPAD_Get_Pressed_Key();
     ea6:	0e 94 96 03 	call	0x72c	; 0x72c <KEYPAD_Get_Pressed_Key>
     eaa:	80 93 3e 06 	sts	0x063E, r24	; 0x80063e <x>
			if (x == '\0') break;
     eae:	88 23       	and	r24, r24
     eb0:	09 f4       	brne	.+2      	; 0xeb4 <LCD_Process+0xba>
     eb2:	a2 c0       	rjmp	.+324    	; 0xff8 <LCD_Process+0x1fe>
			if (x >= '0' && x <= '9'){
     eb4:	90 ed       	ldi	r25, 0xD0	; 208
     eb6:	98 0f       	add	r25, r24
     eb8:	9a 30       	cpi	r25, 0x0A	; 10
     eba:	78 f4       	brcc	.+30     	; 0xeda <LCD_Process+0xe0>
				LCD_Send_Char(x);
     ebc:	0e 94 0a 06 	call	0xc14	; 0xc14 <LCD_Send_Char>
				LCD_Password[pass_count] = x;
     ec0:	80 91 3c 06 	lds	r24, 0x063C	; 0x80063c <pass_count>
     ec4:	e8 2f       	mov	r30, r24
     ec6:	f0 e0       	ldi	r31, 0x00	; 0
     ec8:	ec 59       	subi	r30, 0x9C	; 156
     eca:	f9 4f       	sbci	r31, 0xF9	; 249
     ecc:	90 91 3e 06 	lds	r25, 0x063E	; 0x80063e <x>
     ed0:	90 83       	st	Z, r25
				pass_count++;
     ed2:	8f 5f       	subi	r24, 0xFF	; 255
     ed4:	80 93 3c 06 	sts	0x063C, r24	; 0x80063c <pass_count>
     ed8:	1b c0       	rjmp	.+54     	; 0xf10 <LCD_Process+0x116>
				}else if (x == '*' && pass_count > 0){
     eda:	8a 32       	cpi	r24, 0x2A	; 42
     edc:	89 f4       	brne	.+34     	; 0xf00 <LCD_Process+0x106>
     ede:	90 91 3c 06 	lds	r25, 0x063C	; 0x80063c <pass_count>
     ee2:	99 23       	and	r25, r25
     ee4:	69 f0       	breq	.+26     	; 0xf00 <LCD_Process+0x106>
				LCD_Delete_Last_Written();
     ee6:	0e 94 81 06 	call	0xd02	; 0xd02 <LCD_Delete_Last_Written>
				LCD_Password[pass_count] = '\0';
     eea:	80 91 3c 06 	lds	r24, 0x063C	; 0x80063c <pass_count>
     eee:	e8 2f       	mov	r30, r24
     ef0:	f0 e0       	ldi	r31, 0x00	; 0
     ef2:	ec 59       	subi	r30, 0x9C	; 156
     ef4:	f9 4f       	sbci	r31, 0xF9	; 249
     ef6:	10 82       	st	Z, r1
				pass_count--;
     ef8:	81 50       	subi	r24, 0x01	; 1
     efa:	80 93 3c 06 	sts	0x063C, r24	; 0x80063c <pass_count>
     efe:	08 c0       	rjmp	.+16     	; 0xf10 <LCD_Process+0x116>
				}else if (x >= 'A' && x <= 'D') {
     f00:	81 54       	subi	r24, 0x41	; 65
     f02:	84 30       	cpi	r24, 0x04	; 4
     f04:	28 f4       	brcc	.+10     	; 0xf10 <LCD_Process+0x116>
				g_step++;
     f06:	80 91 61 00 	lds	r24, 0x0061	; 0x800061 <g_step>
     f0a:	8f 5f       	subi	r24, 0xFF	; 255
     f0c:	80 93 61 00 	sts	0x0061, r24	; 0x800061 <g_step>
			}
			x = '\0';
     f10:	10 92 3e 06 	sts	0x063E, r1	; 0x80063e <x>
			break;
     f14:	08 95       	ret
		case 5: 
			//User/Password Login Process
			// If User Exist, Fetch Password
			LCD_ID = atoi(LCD_UserID);
     f16:	84 e5       	ldi	r24, 0x54	; 84
     f18:	96 e0       	ldi	r25, 0x06	; 6
     f1a:	0e 94 20 0d 	call	0x1a40	; 0x1a40 <atoi>
     f1e:	80 93 53 06 	sts	0x0653, r24	; 0x800653 <LCD_ID>

			if(EEPROM_Read_UserID_Exist(LCD_ID)){
     f22:	0e 94 f4 02 	call	0x5e8	; 0x5e8 <EEPROM_Read_UserID_Exist>
     f26:	88 23       	and	r24, r24
     f28:	39 f0       	breq	.+14     	; 0xf38 <LCD_Process+0x13e>
				EEPROM_Read_8Data(LCD_ID,LCD_EE_Password,1);
     f2a:	41 e0       	ldi	r20, 0x01	; 1
     f2c:	6c e6       	ldi	r22, 0x6C	; 108
     f2e:	76 e0       	ldi	r23, 0x06	; 6
     f30:	80 91 53 06 	lds	r24, 0x0653	; 0x800653 <LCD_ID>
     f34:	0e 94 dd 02 	call	0x5ba	; 0x5ba <EEPROM_Read_8Data>
			}
			//If password Match, Login Success!
			if(strcmp(LCD_Password,LCD_EE_Password) == 0){
     f38:	6c e6       	ldi	r22, 0x6C	; 108
     f3a:	76 e0       	ldi	r23, 0x06	; 6
     f3c:	84 e6       	ldi	r24, 0x64	; 100
     f3e:	96 e0       	ldi	r25, 0x06	; 6
     f40:	0e 94 3e 0d 	call	0x1a7c	; 0x1a7c <strcmp>
     f44:	89 2b       	or	r24, r25
     f46:	99 f4       	brne	.+38     	; 0xf6e <LCD_Process+0x174>
				EEPROM_Read_8Data(LCD_ID,LCD_EE_Username,2);
     f48:	42 e0       	ldi	r20, 0x02	; 2
     f4a:	6c e5       	ldi	r22, 0x5C	; 92
     f4c:	76 e0       	ldi	r23, 0x06	; 6
     f4e:	80 91 53 06 	lds	r24, 0x0653	; 0x800653 <LCD_ID>
     f52:	0e 94 dd 02 	call	0x5ba	; 0x5ba <EEPROM_Read_8Data>
				LCD_Show_Welcome_User();
     f56:	0e 94 ca 06 	call	0xd94	; 0xd94 <LCD_Show_Welcome_User>
				LCD_Send_String(LCD_EE_Username);
     f5a:	8c e5       	ldi	r24, 0x5C	; 92
     f5c:	96 e0       	ldi	r25, 0x06	; 6
     f5e:	0e 94 9d 06 	call	0xd3a	; 0xd3a <LCD_Send_String>
				g_step++;
     f62:	80 91 61 00 	lds	r24, 0x0061	; 0x800061 <g_step>
     f66:	8f 5f       	subi	r24, 0xFF	; 255
     f68:	80 93 61 00 	sts	0x0061, r24	; 0x800061 <g_step>
     f6c:	08 95       	ret
			}else{
				//Else Login Failed, Increase Fail Counter
				LCD_Show_AuthFailed();
     f6e:	0e 94 d1 06 	call	0xda2	; 0xda2 <LCD_Show_AuthFailed>
				LCD_Fail_Count++;
     f72:	80 91 3b 06 	lds	r24, 0x063B	; 0x80063b <LCD_Fail_Count>
     f76:	8f 5f       	subi	r24, 0xFF	; 255
     f78:	80 93 3b 06 	sts	0x063B, r24	; 0x80063b <LCD_Fail_Count>
				if(LCD_Fail_Count == Max_Failure_Login_Count){
     f7c:	90 91 aa 03 	lds	r25, 0x03AA	; 0x8003aa <Max_Failure_Login_Count>
     f80:	89 13       	cpse	r24, r25
     f82:	08 c0       	rjmp	.+16     	; 0xf94 <LCD_Process+0x19a>
					UART_Send_String_Polling_8("Login Failed, \nSystem Locked! \n");
     f84:	82 ea       	ldi	r24, 0xA2	; 162
     f86:	92 e0       	ldi	r25, 0x02	; 2
     f88:	0e 94 e8 0b 	call	0x17d0	; 0x17d0 <UART_Send_String_Polling_8>
					LCD_Show_Locked();
     f8c:	0e 94 f2 06 	call	0xde4	; 0xde4 <LCD_Show_Locked>
					BUZZER_ALARM_TILL_RESET();
     f90:	0e 94 bd 00 	call	0x17a	; 0x17a <BUZZER_ALARM_TILL_RESET>
				}
				g_step = 1;
     f94:	81 e0       	ldi	r24, 0x01	; 1
     f96:	80 93 61 00 	sts	0x0061, r24	; 0x800061 <g_step>
     f9a:	08 95       	ret
	#else
		//round up by default
		__ticks_dc = (uint32_t)(ceil(fabs(__tmp)));
	#endif

	__builtin_avr_delay_cycles(__ticks_dc);
     f9c:	2f ef       	ldi	r18, 0xFF	; 255
     f9e:	83 ed       	ldi	r24, 0xD3	; 211
     fa0:	90 e3       	ldi	r25, 0x30	; 48
     fa2:	21 50       	subi	r18, 0x01	; 1
     fa4:	80 40       	sbci	r24, 0x00	; 0
     fa6:	90 40       	sbci	r25, 0x00	; 0
     fa8:	e1 f7       	brne	.-8      	; 0xfa2 <LCD_Process+0x1a8>
     faa:	00 c0       	rjmp	.+0      	; 0xfac <LCD_Process+0x1b2>
     fac:	00 00       	nop
			}
			break;
			
			
		case 6:_delay_ms(1000);LCD_Show_Main_Options();break;
     fae:	0e 94 dc 06 	call	0xdb8	; 0xdb8 <LCD_Show_Main_Options>
     fb2:	08 95       	ret
		case 7:
			x = KEYPAD_Get_Pressed_Key();
     fb4:	0e 94 96 03 	call	0x72c	; 0x72c <KEYPAD_Get_Pressed_Key>
     fb8:	80 93 3e 06 	sts	0x063E, r24	; 0x80063e <x>
			if (x == '\0' && Release == 1) break;
     fbc:	81 11       	cpse	r24, r1
     fbe:	04 c0       	rjmp	.+8      	; 0xfc8 <LCD_Process+0x1ce>
     fc0:	90 91 60 00 	lds	r25, 0x0060	; 0x800060 <__DATA_REGION_ORIGIN__>
     fc4:	91 30       	cpi	r25, 0x01	; 1
     fc6:	c1 f0       	breq	.+48     	; 0xff8 <LCD_Process+0x1fe>
			if (x >= '0' && x <= '4'){
     fc8:	80 53       	subi	r24, 0x30	; 48
     fca:	85 30       	cpi	r24, 0x05	; 5
     fcc:	28 f4       	brcc	.+10     	; 0xfd8 <LCD_Process+0x1de>
				LCD_g_choice1 = x - 48;
     fce:	80 93 3a 06 	sts	0x063A, r24	; 0x80063a <LCD_g_choice1>
				x = '\0';
     fd2:	10 92 3e 06 	sts	0x063E, r1	; 0x80063e <x>
     fd6:	08 95       	ret
				//g_step++;
			}else{
				LCD_Show_Invalid();
     fd8:	0e 94 e7 06 	call	0xdce	; 0xdce <LCD_Show_Invalid>
     fdc:	2f ef       	ldi	r18, 0xFF	; 255
     fde:	83 ed       	ldi	r24, 0xD3	; 211
     fe0:	90 e3       	ldi	r25, 0x30	; 48
     fe2:	21 50       	subi	r18, 0x01	; 1
     fe4:	80 40       	sbci	r24, 0x00	; 0
     fe6:	90 40       	sbci	r25, 0x00	; 0
     fe8:	e1 f7       	brne	.-8      	; 0xfe2 <LCD_Process+0x1e8>
     fea:	00 c0       	rjmp	.+0      	; 0xfec <LCD_Process+0x1f2>
     fec:	00 00       	nop
				_delay_ms(1000);
				g_step--;
     fee:	80 91 61 00 	lds	r24, 0x0061	; 0x800061 <g_step>
     ff2:	81 50       	subi	r24, 0x01	; 1
     ff4:	80 93 61 00 	sts	0x0061, r24	; 0x800061 <g_step>
     ff8:	08 95       	ret

00000ffa <LED_Init_All>:
void LED_0_Toggle(){DIO_Set_Pin_Output(Led0_Port,Led0_Pin,Toggle);}
void LED_1_Toggle(){DIO_Set_Pin_Output(Led1_Port,Led1_Pin,Toggle);}
void LED_2_Toggle(){DIO_Set_Pin_Output(Led2_Port,Led2_Pin,Toggle);}
void LED_3_Toggle(){DIO_Set_Pin_Output(Led3_Port,Led3_Pin,Toggle);}
void LED_4_Toggle(){DIO_Set_Pin_Output(Led4_Port,Led4_Pin,Toggle);}
void Dimmer_Toggle(){DIO_Set_Pin_Output(Dimmer_Port,Dimmer_Pin,Low);}
     ffa:	41 e0       	ldi	r20, 0x01	; 1
     ffc:	62 e0       	ldi	r22, 0x02	; 2
     ffe:	82 e0       	ldi	r24, 0x02	; 2
    1000:	0e 94 22 0a 	call	0x1444	; 0x1444 <DIO_Set_Pin_Direction>
    1004:	41 e0       	ldi	r20, 0x01	; 1
    1006:	67 e0       	ldi	r22, 0x07	; 7
    1008:	82 e0       	ldi	r24, 0x02	; 2
    100a:	0e 94 22 0a 	call	0x1444	; 0x1444 <DIO_Set_Pin_Direction>
    100e:	41 e0       	ldi	r20, 0x01	; 1
    1010:	63 e0       	ldi	r22, 0x03	; 3
    1012:	83 e0       	ldi	r24, 0x03	; 3
    1014:	0e 94 22 0a 	call	0x1444	; 0x1444 <DIO_Set_Pin_Direction>
    1018:	41 e0       	ldi	r20, 0x01	; 1
    101a:	65 e0       	ldi	r22, 0x05	; 5
    101c:	83 e0       	ldi	r24, 0x03	; 3
    101e:	0e 94 22 0a 	call	0x1444	; 0x1444 <DIO_Set_Pin_Direction>
    1022:	41 e0       	ldi	r20, 0x01	; 1
    1024:	64 e0       	ldi	r22, 0x04	; 4
    1026:	83 e0       	ldi	r24, 0x03	; 3
    1028:	0e 94 22 0a 	call	0x1444	; 0x1444 <DIO_Set_Pin_Direction>
    102c:	41 e0       	ldi	r20, 0x01	; 1
    102e:	60 e0       	ldi	r22, 0x00	; 0
    1030:	80 e0       	ldi	r24, 0x00	; 0
    1032:	0e 94 22 0a 	call	0x1444	; 0x1444 <DIO_Set_Pin_Direction>
    1036:	08 95       	ret

00001038 <LED_0_Off>:
    1038:	40 e0       	ldi	r20, 0x00	; 0
    103a:	62 e0       	ldi	r22, 0x02	; 2
    103c:	82 e0       	ldi	r24, 0x02	; 2
    103e:	0e 94 92 0a 	call	0x1524	; 0x1524 <DIO_Set_Pin_Output>
    1042:	08 95       	ret

00001044 <LED_1_Off>:
    1044:	40 e0       	ldi	r20, 0x00	; 0
    1046:	67 e0       	ldi	r22, 0x07	; 7
    1048:	82 e0       	ldi	r24, 0x02	; 2
    104a:	0e 94 92 0a 	call	0x1524	; 0x1524 <DIO_Set_Pin_Output>
    104e:	08 95       	ret

00001050 <LED_2_Off>:
    1050:	40 e0       	ldi	r20, 0x00	; 0
    1052:	63 e0       	ldi	r22, 0x03	; 3
    1054:	83 e0       	ldi	r24, 0x03	; 3
    1056:	0e 94 92 0a 	call	0x1524	; 0x1524 <DIO_Set_Pin_Output>
    105a:	08 95       	ret

0000105c <LED_3_Off>:
    105c:	40 e0       	ldi	r20, 0x00	; 0
    105e:	65 e0       	ldi	r22, 0x05	; 5
    1060:	83 e0       	ldi	r24, 0x03	; 3
    1062:	0e 94 92 0a 	call	0x1524	; 0x1524 <DIO_Set_Pin_Output>
    1066:	08 95       	ret

00001068 <LED_4_Off>:
    1068:	40 e0       	ldi	r20, 0x00	; 0
    106a:	64 e0       	ldi	r22, 0x04	; 4
    106c:	83 e0       	ldi	r24, 0x03	; 3
    106e:	0e 94 92 0a 	call	0x1524	; 0x1524 <DIO_Set_Pin_Output>
    1072:	08 95       	ret

00001074 <LED_0_Toggle>:
    1074:	42 e0       	ldi	r20, 0x02	; 2
    1076:	62 e0       	ldi	r22, 0x02	; 2
    1078:	82 e0       	ldi	r24, 0x02	; 2
    107a:	0e 94 92 0a 	call	0x1524	; 0x1524 <DIO_Set_Pin_Output>
    107e:	08 95       	ret

00001080 <LED_1_Toggle>:
    1080:	42 e0       	ldi	r20, 0x02	; 2
    1082:	67 e0       	ldi	r22, 0x07	; 7
    1084:	82 e0       	ldi	r24, 0x02	; 2
    1086:	0e 94 92 0a 	call	0x1524	; 0x1524 <DIO_Set_Pin_Output>
    108a:	08 95       	ret

0000108c <LED_2_Toggle>:
    108c:	42 e0       	ldi	r20, 0x02	; 2
    108e:	63 e0       	ldi	r22, 0x03	; 3
    1090:	83 e0       	ldi	r24, 0x03	; 3
    1092:	0e 94 92 0a 	call	0x1524	; 0x1524 <DIO_Set_Pin_Output>
    1096:	08 95       	ret

00001098 <LED_3_Toggle>:
    1098:	42 e0       	ldi	r20, 0x02	; 2
    109a:	65 e0       	ldi	r22, 0x05	; 5
    109c:	83 e0       	ldi	r24, 0x03	; 3
    109e:	0e 94 92 0a 	call	0x1524	; 0x1524 <DIO_Set_Pin_Output>
    10a2:	08 95       	ret

000010a4 <LED_4_Toggle>:
    10a4:	42 e0       	ldi	r20, 0x02	; 2
    10a6:	64 e0       	ldi	r22, 0x04	; 4
    10a8:	83 e0       	ldi	r24, 0x03	; 3
    10aa:	0e 94 92 0a 	call	0x1524	; 0x1524 <DIO_Set_Pin_Output>
    10ae:	08 95       	ret

000010b0 <LED_Feedback>:

void LED_Feedback(uint8 g_choice_2){
    10b0:	cf 93       	push	r28
	uint8 x = 0;
	switch(g_choice_2){
    10b2:	83 30       	cpi	r24, 0x03	; 3
    10b4:	99 f0       	breq	.+38     	; 0x10dc <LED_Feedback+0x2c>
    10b6:	28 f4       	brcc	.+10     	; 0x10c2 <LED_Feedback+0x12>
    10b8:	81 30       	cpi	r24, 0x01	; 1
    10ba:	41 f0       	breq	.+16     	; 0x10cc <LED_Feedback+0x1c>
    10bc:	82 30       	cpi	r24, 0x02	; 2
    10be:	51 f0       	breq	.+20     	; 0x10d4 <LED_Feedback+0x24>
    10c0:	19 c0       	rjmp	.+50     	; 0x10f4 <LED_Feedback+0x44>
    10c2:	84 30       	cpi	r24, 0x04	; 4
    10c4:	79 f0       	breq	.+30     	; 0x10e4 <LED_Feedback+0x34>
    10c6:	85 30       	cpi	r24, 0x05	; 5
    10c8:	89 f0       	breq	.+34     	; 0x10ec <LED_Feedback+0x3c>
    10ca:	14 c0       	rjmp	.+40     	; 0x10f4 <LED_Feedback+0x44>
		case 1: // Toggle Led 0
		LED_0_Toggle(); x = 0;break;
    10cc:	0e 94 3a 08 	call	0x1074	; 0x1074 <LED_0_Toggle>
    10d0:	c0 e0       	ldi	r28, 0x00	; 0
    10d2:	11 c0       	rjmp	.+34     	; 0x10f6 <LED_Feedback+0x46>
		case 2: // Toggle Led 1
		LED_1_Toggle(); x = 1;break;
    10d4:	0e 94 40 08 	call	0x1080	; 0x1080 <LED_1_Toggle>
    10d8:	c1 e0       	ldi	r28, 0x01	; 1
    10da:	0d c0       	rjmp	.+26     	; 0x10f6 <LED_Feedback+0x46>
		case 3: // Toggle Led 2
		LED_2_Toggle(); x = 2;break;
    10dc:	0e 94 46 08 	call	0x108c	; 0x108c <LED_2_Toggle>
    10e0:	c2 e0       	ldi	r28, 0x02	; 2
    10e2:	09 c0       	rjmp	.+18     	; 0x10f6 <LED_Feedback+0x46>
		case 4: // Toggle Led 3
		LED_3_Toggle(); x = 3;break;
    10e4:	0e 94 4c 08 	call	0x1098	; 0x1098 <LED_3_Toggle>
    10e8:	c3 e0       	ldi	r28, 0x03	; 3
    10ea:	05 c0       	rjmp	.+10     	; 0x10f6 <LED_Feedback+0x46>
		case 5: // Toggle Led 4
		LED_4_Toggle(); x = 4;break;
    10ec:	0e 94 52 08 	call	0x10a4	; 0x10a4 <LED_4_Toggle>
    10f0:	c4 e0       	ldi	r28, 0x04	; 4
    10f2:	01 c0       	rjmp	.+2      	; 0x10f6 <LED_Feedback+0x46>
void LED_3_Toggle(){DIO_Set_Pin_Output(Led3_Port,Led3_Pin,Toggle);}
void LED_4_Toggle(){DIO_Set_Pin_Output(Led4_Port,Led4_Pin,Toggle);}
void Dimmer_Toggle(){DIO_Set_Pin_Output(Dimmer_Port,Dimmer_Pin,Low);}

void LED_Feedback(uint8 g_choice_2){
	uint8 x = 0;
    10f4:	c0 e0       	ldi	r28, 0x00	; 0
		case 4: // Toggle Led 3
		LED_3_Toggle(); x = 3;break;
		case 5: // Toggle Led 4
		LED_4_Toggle(); x = 4;break;
	}
	UART_Send_String_Polling_8("Led ");
    10f6:	8d ee       	ldi	r24, 0xED	; 237
    10f8:	92 e0       	ldi	r25, 0x02	; 2
    10fa:	0e 94 e8 0b 	call	0x17d0	; 0x17d0 <UART_Send_String_Polling_8>
	UART_Send_Byte_Polling_8(x);
    10fe:	8c 2f       	mov	r24, r28
    1100:	90 e0       	ldi	r25, 0x00	; 0
    1102:	0e 94 e4 0b 	call	0x17c8	; 0x17c8 <UART_Send_Byte_Polling_8>
	UART_Send_String_Polling_8("Toggled");
    1106:	82 ef       	ldi	r24, 0xF2	; 242
    1108:	92 e0       	ldi	r25, 0x02	; 2
    110a:	0e 94 e8 0b 	call	0x17d0	; 0x17d0 <UART_Send_String_Polling_8>
    110e:	cf 91       	pop	r28
    1110:	08 95       	ret

00001112 <Smart_Initialization>:
	UART_Received_Flag = 1;
}
void Go_Back(){
	UART_Send_String_Polling_8("Going Back!\n");
	UART_Show_MainMenu();
	UART_global_Flag--;
    1112:	0e 94 fd 07 	call	0xffa	; 0xffa <LED_Init_All>
    1116:	0e 94 22 08 	call	0x1044	; 0x1044 <LED_1_Off>
    111a:	0e 94 28 08 	call	0x1050	; 0x1050 <LED_2_Off>
    111e:	0e 94 2e 08 	call	0x105c	; 0x105c <LED_3_Off>
    1122:	0e 94 34 08 	call	0x1068	; 0x1068 <LED_4_Off>
    1126:	0e 94 1c 08 	call	0x1038	; 0x1038 <LED_0_Off>
    112a:	0e 94 35 05 	call	0xa6a	; 0xa6a <LCD_Init>
    112e:	0e 94 45 03 	call	0x68a	; 0x68a <KEYPAD_Initialization>
    1132:	0e 94 58 00 	call	0xb0	; 0xb0 <AC_Initialization>
    1136:	0e 94 dc 01 	call	0x3b8	; 0x3b8 <Servo_Init>
    113a:	0e 94 00 01 	call	0x200	; 0x200 <Dimmer_Init>
    113e:	0e 94 61 01 	call	0x2c2	; 0x2c2 <Dimmer_Off>
    1142:	0e 94 f3 01 	call	0x3e6	; 0x3e6 <EEPROM_Init>
    1146:	0e 94 bf 0b 	call	0x177e	; 0x177e <UART_Init>
    114a:	0e 94 bb 0b 	call	0x1776	; 0x1776 <UART_Enable_RX_Interrupt>
    114e:	0e 94 66 0b 	call	0x16cc	; 0x16cc <GIE_Enable>
    1152:	08 95       	ret

00001154 <__vector_13>:
    1154:	1f 92       	push	r1
    1156:	0f 92       	push	r0
    1158:	0f b6       	in	r0, 0x3f	; 63
    115a:	0f 92       	push	r0
    115c:	11 24       	eor	r1, r1
    115e:	2f 93       	push	r18
    1160:	3f 93       	push	r19
    1162:	4f 93       	push	r20
    1164:	5f 93       	push	r21
    1166:	6f 93       	push	r22
    1168:	7f 93       	push	r23
    116a:	8f 93       	push	r24
    116c:	9f 93       	push	r25
    116e:	af 93       	push	r26
    1170:	bf 93       	push	r27
    1172:	ef 93       	push	r30
    1174:	ff 93       	push	r31
    1176:	86 e7       	ldi	r24, 0x76	; 118
    1178:	96 e0       	ldi	r25, 0x06	; 6
    117a:	0e 94 ff 0b 	call	0x17fe	; 0x17fe <UART_Recieve_String_8>
    117e:	81 e0       	ldi	r24, 0x01	; 1
    1180:	80 93 51 06 	sts	0x0651, r24	; 0x800651 <UART_Received_Flag>
    1184:	ff 91       	pop	r31
    1186:	ef 91       	pop	r30
    1188:	bf 91       	pop	r27
    118a:	af 91       	pop	r26
    118c:	9f 91       	pop	r25
    118e:	8f 91       	pop	r24
    1190:	7f 91       	pop	r23
    1192:	6f 91       	pop	r22
    1194:	5f 91       	pop	r21
    1196:	4f 91       	pop	r20
    1198:	3f 91       	pop	r19
    119a:	2f 91       	pop	r18
    119c:	0f 90       	pop	r0
    119e:	0f be       	out	0x3f, r0	; 63
    11a0:	0f 90       	pop	r0
    11a2:	1f 90       	pop	r1
    11a4:	18 95       	reti

000011a6 <Go_Next>:
}
void Go_Next(){
	UART_global_Flag++;
    11a6:	80 91 72 00 	lds	r24, 0x0072	; 0x800072 <UART_global_Flag>
    11aa:	8f 5f       	subi	r24, 0xFF	; 255
    11ac:	80 93 72 00 	sts	0x0072, r24	; 0x800072 <UART_global_Flag>
    11b0:	08 95       	ret

000011b2 <UART_Process>:
	// step 2 user_password
	// step 3 choice_1(from main menu)
	// step 4 choice_2(from Control_Appliances/UserManagement/Settings)
	// step 5 choice_3(from ...)

	if (UART_Received_Flag == 1) {
    11b2:	80 91 51 06 	lds	r24, 0x0651	; 0x800651 <UART_Received_Flag>
    11b6:	81 30       	cpi	r24, 0x01	; 1
    11b8:	09 f0       	breq	.+2      	; 0x11bc <UART_Process+0xa>
    11ba:	3c c1       	rjmp	.+632    	; 0x1434 <UART_Process+0x282>
		UART_Received_Flag = 0;
    11bc:	10 92 51 06 	sts	0x0651, r1	; 0x800651 <UART_Received_Flag>

		switch (UART_global_Flag) {
    11c0:	80 91 72 00 	lds	r24, 0x0072	; 0x800072 <UART_global_Flag>
    11c4:	83 30       	cpi	r24, 0x03	; 3
    11c6:	f9 f0       	breq	.+62     	; 0x1206 <UART_Process+0x54>
    11c8:	28 f4       	brcc	.+10     	; 0x11d4 <UART_Process+0x22>
    11ca:	81 30       	cpi	r24, 0x01	; 1
    11cc:	61 f0       	breq	.+24     	; 0x11e6 <UART_Process+0x34>
    11ce:	82 30       	cpi	r24, 0x02	; 2
    11d0:	79 f0       	breq	.+30     	; 0x11f0 <UART_Process+0x3e>
    11d2:	08 95       	ret
    11d4:	85 30       	cpi	r24, 0x05	; 5
    11d6:	09 f4       	brne	.+2      	; 0x11da <UART_Process+0x28>
    11d8:	88 c0       	rjmp	.+272    	; 0x12ea <UART_Process+0x138>
    11da:	08 f4       	brcc	.+2      	; 0x11de <UART_Process+0x2c>
    11dc:	5e c0       	rjmp	.+188    	; 0x129a <UART_Process+0xe8>
    11de:	86 30       	cpi	r24, 0x06	; 6
    11e0:	09 f4       	brne	.+2      	; 0x11e4 <UART_Process+0x32>
    11e2:	f6 c0       	rjmp	.+492    	; 0x13d0 <UART_Process+0x21e>
    11e4:	08 95       	ret
			/************************* Login Process *************************/
			case 1: //Just Started, User Not loggedIn, user sent anything
			UART_Show_Request_UserID();
    11e6:	0e 94 1c 0c 	call	0x1838	; 0x1838 <UART_Show_Request_UserID>
			Go_Next();
    11ea:	0e 94 d3 08 	call	0x11a6	; 0x11a6 <Go_Next>
			break;
    11ee:	08 95       	ret
			case 2: // we got user input for userID now we validate it
			strcpy(UART_UserID, UART_Buffer); // Copy UART_Buffer To USERID
    11f0:	66 e7       	ldi	r22, 0x76	; 118
    11f2:	76 e0       	ldi	r23, 0x06	; 6
    11f4:	89 e4       	ldi	r24, 0x49	; 73
    11f6:	96 e0       	ldi	r25, 0x06	; 6
    11f8:	0e 94 47 0d 	call	0x1a8e	; 0x1a8e <strcpy>
			UART_Show_Request_Password();
    11fc:	0e 94 21 0c 	call	0x1842	; 0x1842 <UART_Show_Request_Password>
			Go_Next();
    1200:	0e 94 d3 08 	call	0x11a6	; 0x11a6 <Go_Next>
			break;
    1204:	08 95       	ret
			case 3: // login Process
			strcpy(UART_Password, UART_Buffer); // Copy UART_Buffer to Password
    1206:	66 e7       	ldi	r22, 0x76	; 118
    1208:	76 e0       	ldi	r23, 0x06	; 6
    120a:	80 e4       	ldi	r24, 0x40	; 64
    120c:	96 e0       	ldi	r25, 0x06	; 6
    120e:	0e 94 47 0d 	call	0x1a8e	; 0x1a8e <strcpy>
			//			atoi ascii to integer || itoa integer to ascii
			User_ID = atoi(UART_UserID);
    1212:	89 e4       	ldi	r24, 0x49	; 73
    1214:	96 e0       	ldi	r25, 0x06	; 6
    1216:	0e 94 20 0d 	call	0x1a40	; 0x1a40 <atoi>
    121a:	80 93 48 06 	sts	0x0648, r24	; 0x800648 <User_ID>
			//			Check if User Exists
			if (EEPROM_Read_UserID_Exist(User_ID)) {
    121e:	0e 94 f4 02 	call	0x5e8	; 0x5e8 <EEPROM_Read_UserID_Exist>
    1222:	88 23       	and	r24, r24
    1224:	71 f0       	breq	.+28     	; 0x1242 <UART_Process+0x90>
				// Get Username and Password
				EEPROM_Read_8Data(User_ID, EEPROM_Username, 2);
    1226:	42 e0       	ldi	r20, 0x02	; 2
    1228:	6a e6       	ldi	r22, 0x6A	; 106
    122a:	70 e0       	ldi	r23, 0x00	; 0
    122c:	80 91 48 06 	lds	r24, 0x0648	; 0x800648 <User_ID>
    1230:	0e 94 dd 02 	call	0x5ba	; 0x5ba <EEPROM_Read_8Data>
				EEPROM_Read_8Data(User_ID, EEPROM_Password, 1);
    1234:	41 e0       	ldi	r20, 0x01	; 1
    1236:	62 e6       	ldi	r22, 0x62	; 98
    1238:	70 e0       	ldi	r23, 0x00	; 0
    123a:	80 91 48 06 	lds	r24, 0x0648	; 0x800648 <User_ID>
    123e:	0e 94 dd 02 	call	0x5ba	; 0x5ba <EEPROM_Read_8Data>
			}
			// User and password Compare!
			if (strcmp(EEPROM_Password, UART_Password) == 0) {
    1242:	60 e4       	ldi	r22, 0x40	; 64
    1244:	76 e0       	ldi	r23, 0x06	; 6
    1246:	82 e6       	ldi	r24, 0x62	; 98
    1248:	90 e0       	ldi	r25, 0x00	; 0
    124a:	0e 94 3e 0d 	call	0x1a7c	; 0x1a7c <strcmp>
    124e:	89 2b       	or	r24, r25
    1250:	89 f4       	brne	.+34     	; 0x1274 <UART_Process+0xc2>
				UART_Send_String_Polling_8("Welcome Back! ");
    1252:	87 e0       	ldi	r24, 0x07	; 7
    1254:	93 e0       	ldi	r25, 0x03	; 3
    1256:	0e 94 e8 0b 	call	0x17d0	; 0x17d0 <UART_Send_String_Polling_8>
				UART_Send_String_Polling_8(EEPROM_Username);
    125a:	8a e6       	ldi	r24, 0x6A	; 106
    125c:	90 e0       	ldi	r25, 0x00	; 0
    125e:	0e 94 e8 0b 	call	0x17d0	; 0x17d0 <UART_Send_String_Polling_8>
				UART_Send_String_Polling_8("\n");
    1262:	84 e3       	ldi	r24, 0x34	; 52
    1264:	95 e0       	ldi	r25, 0x05	; 5
    1266:	0e 94 e8 0b 	call	0x17d0	; 0x17d0 <UART_Send_String_Polling_8>
				UART_Show_MainMenu();
    126a:	0e 94 2b 0c 	call	0x1856	; 0x1856 <UART_Show_MainMenu>
				Go_Next();
    126e:	0e 94 d3 08 	call	0x11a6	; 0x11a6 <Go_Next>
    1272:	08 95       	ret
				} else {
				//				If Login Fail, Count Failure, Lock Sys
				FailCount++;
    1274:	80 91 52 06 	lds	r24, 0x0652	; 0x800652 <FailCount>
    1278:	8f 5f       	subi	r24, 0xFF	; 255
    127a:	80 93 52 06 	sts	0x0652, r24	; 0x800652 <FailCount>
				if (FailCount >= Max_Failure_Login_Count) {
    127e:	83 30       	cpi	r24, 0x03	; 3
    1280:	30 f0       	brcs	.+12     	; 0x128e <UART_Process+0xdc>
					UART_Send_String_Polling_8("Login Failed, \nSystem Locked! \n");
    1282:	82 ea       	ldi	r24, 0xA2	; 162
    1284:	92 e0       	ldi	r25, 0x02	; 2
    1286:	0e 94 e8 0b 	call	0x17d0	; 0x17d0 <UART_Send_String_Polling_8>
					BUZZER_ALARM_TILL_RESET();
    128a:	0e 94 bd 00 	call	0x17a	; 0x17a <BUZZER_ALARM_TILL_RESET>
				}
				UART_Show_Login_Failed();
    128e:	0e 94 0c 0d 	call	0x1a18	; 0x1a18 <UART_Show_Login_Failed>
				UART_global_Flag = 1;
    1292:	81 e0       	ldi	r24, 0x01	; 1
    1294:	80 93 72 00 	sts	0x0072, r24	; 0x800072 <UART_global_Flag>
    1298:	08 95       	ret
			}
			break;
			/********************** End Login Process *************************/

			case 4: // Process choice 1 from MainMenu
			g_choice_1 = atoi(UART_Buffer);
    129a:	86 e7       	ldi	r24, 0x76	; 118
    129c:	96 e0       	ldi	r25, 0x06	; 6
    129e:	0e 94 20 0d 	call	0x1a40	; 0x1a40 <atoi>
    12a2:	80 93 74 06 	sts	0x0674, r24	; 0x800674 <g_choice_1>
			if (g_choice_1 <= 9 || g_choice_1 != 0) {
				// If user Input is valid BUT User is not admin
				// We Give him Admin Auth Refused
				// Admin Only: Control Door(3), Create,Delete(6,7)  User
				// Factory Reset(8)
				if ((g_choice_1 > 5 && g_choice_1 < 9) || (g_choice_1 == 3)) {
    12a6:	9a ef       	ldi	r25, 0xFA	; 250
    12a8:	98 0f       	add	r25, r24
    12aa:	93 30       	cpi	r25, 0x03	; 3
    12ac:	10 f0       	brcs	.+4      	; 0x12b2 <UART_Process+0x100>
    12ae:	83 30       	cpi	r24, 0x03	; 3
    12b0:	49 f4       	brne	.+18     	; 0x12c4 <UART_Process+0x112>
					if (User_ID != Admin_ID) {
    12b2:	90 91 48 06 	lds	r25, 0x0648	; 0x800648 <User_ID>
    12b6:	93 36       	cpi	r25, 0x63	; 99
    12b8:	29 f0       	breq	.+10     	; 0x12c4 <UART_Process+0x112>
						UART_Send_String_Polling_8("Auth Denied, Only Admin Function! \n");
    12ba:	86 e1       	ldi	r24, 0x16	; 22
    12bc:	93 e0       	ldi	r25, 0x03	; 3
    12be:	0e 94 e8 0b 	call	0x17d0	; 0x17d0 <UART_Send_String_Polling_8>
						break;
    12c2:	08 95       	ret
					}
				}
				//Otherwise, Allow to handle every functionality
				UART_Choice_Handler_1(g_choice_1);
    12c4:	0e 94 ea 0c 	call	0x19d4	; 0x19d4 <UART_Choice_Handler_1>
				// For Show user list No further Instructions Needed
					if (g_choice_1 != 5) {
    12c8:	80 91 74 06 	lds	r24, 0x0674	; 0x800674 <g_choice_1>
    12cc:	85 30       	cpi	r24, 0x05	; 5
    12ce:	31 f0       	breq	.+12     	; 0x12dc <UART_Process+0x12a>
						UART_global_Flag++;
    12d0:	80 91 72 00 	lds	r24, 0x0072	; 0x800072 <UART_global_Flag>
    12d4:	8f 5f       	subi	r24, 0xFF	; 255
    12d6:	80 93 72 00 	sts	0x0072, r24	; 0x800072 <UART_global_Flag>
    12da:	08 95       	ret
					}else if(g_choice_1 == 8){
    12dc:	88 30       	cpi	r24, 0x08	; 8
    12de:	09 f0       	breq	.+2      	; 0x12e2 <UART_Process+0x130>
    12e0:	a9 c0       	rjmp	.+338    	; 0x1434 <UART_Process+0x282>
						UART_global_Flag = 2;
    12e2:	82 e0       	ldi	r24, 0x02	; 2
    12e4:	80 93 72 00 	sts	0x0072, r24	; 0x800072 <UART_global_Flag>
    12e8:	08 95       	ret
				UART_Show_MainMenu();
			}
			break;

			case 5: // Process choice 2 from SubMenu
			g_choice_2 = atoi(UART_Buffer);
    12ea:	86 e7       	ldi	r24, 0x76	; 118
    12ec:	96 e0       	ldi	r25, 0x06	; 6
    12ee:	0e 94 20 0d 	call	0x1a40	; 0x1a40 <atoi>
    12f2:	80 93 7e 06 	sts	0x067E, r24	; 0x80067e <g_choice_2>
			if (g_choice_1 != 6 && g_choice_1 != 7) {
    12f6:	90 91 74 06 	lds	r25, 0x0674	; 0x800674 <g_choice_1>
    12fa:	2a ef       	ldi	r18, 0xFA	; 250
    12fc:	29 0f       	add	r18, r25
    12fe:	22 30       	cpi	r18, 0x02	; 2
    1300:	98 f0       	brcs	.+38     	; 0x1328 <UART_Process+0x176>
				if (g_choice_2 > 8) {
    1302:	89 30       	cpi	r24, 0x09	; 9
    1304:	38 f0       	brcs	.+14     	; 0x1314 <UART_Process+0x162>
					UART_Show_Invalid();
    1306:	0e 94 26 0c 	call	0x184c	; 0x184c <UART_Show_Invalid>
					UART_Choice_Handler_1(g_choice_1);
    130a:	80 91 74 06 	lds	r24, 0x0674	; 0x800674 <g_choice_1>
    130e:	0e 94 ea 0c 	call	0x19d4	; 0x19d4 <UART_Choice_Handler_1>
					break;
    1312:	08 95       	ret
				}
				if (g_choice_2 == 0) {
    1314:	81 11       	cpse	r24, r1
    1316:	08 c0       	rjmp	.+16     	; 0x1328 <UART_Process+0x176>
					UART_Show_MainMenu();
    1318:	0e 94 2b 0c 	call	0x1856	; 0x1856 <UART_Show_MainMenu>
					UART_global_Flag--;
    131c:	80 91 72 00 	lds	r24, 0x0072	; 0x800072 <UART_global_Flag>
    1320:	81 50       	subi	r24, 0x01	; 1
    1322:	80 93 72 00 	sts	0x0072, r24	; 0x800072 <UART_global_Flag>
					break;
    1326:	08 95       	ret
				}
			}

			switch (g_choice_1) {
    1328:	93 30       	cpi	r25, 0x03	; 3
    132a:	f1 f0       	breq	.+60     	; 0x1368 <UART_Process+0x1b6>
    132c:	28 f4       	brcc	.+10     	; 0x1338 <UART_Process+0x186>
    132e:	91 30       	cpi	r25, 0x01	; 1
    1330:	59 f0       	breq	.+22     	; 0x1348 <UART_Process+0x196>
    1332:	92 30       	cpi	r25, 0x02	; 2
    1334:	89 f0       	breq	.+34     	; 0x1358 <UART_Process+0x1a6>
    1336:	08 95       	ret
    1338:	96 30       	cpi	r25, 0x06	; 6
    133a:	39 f1       	breq	.+78     	; 0x138a <UART_Process+0x1d8>
    133c:	97 30       	cpi	r25, 0x07	; 7
    133e:	99 f1       	breq	.+102    	; 0x13a6 <UART_Process+0x1f4>
    1340:	94 30       	cpi	r25, 0x04	; 4
    1342:	09 f0       	breq	.+2      	; 0x1346 <UART_Process+0x194>
    1344:	77 c0       	rjmp	.+238    	; 0x1434 <UART_Process+0x282>
    1346:	19 c0       	rjmp	.+50     	; 0x137a <UART_Process+0x1c8>
				case 1: // LED Controller
				if (g_choice_2 < 6) {
    1348:	86 30       	cpi	r24, 0x06	; 6
    134a:	18 f4       	brcc	.+6      	; 0x1352 <UART_Process+0x1a0>
					LED_Feedback(g_choice_2);
    134c:	0e 94 58 08 	call	0x10b0	; 0x10b0 <LED_Feedback>
    1350:	08 95       	ret
					} else {
					UART_Show_Invalid();
    1352:	0e 94 26 0c 	call	0x184c	; 0x184c <UART_Show_Invalid>
    1356:	08 95       	ret
				}
				break;
				case 2: // Air Conditioner Controller
				if (g_choice_2 < 4) {
    1358:	84 30       	cpi	r24, 0x04	; 4
    135a:	18 f4       	brcc	.+6      	; 0x1362 <UART_Process+0x1b0>
					AC_Feedback(g_choice_2);
    135c:	0e 94 6a 00 	call	0xd4	; 0xd4 <AC_Feedback>
    1360:	08 95       	ret
					} else {
					UART_Show_Invalid();
    1362:	0e 94 26 0c 	call	0x184c	; 0x184c <UART_Show_Invalid>
    1366:	08 95       	ret
				}
				break;
				case 3: // Door Controller
				if (g_choice_2 < 3) {
    1368:	83 30       	cpi	r24, 0x03	; 3
    136a:	20 f4       	brcc	.+8      	; 0x1374 <UART_Process+0x1c2>
					Door_Feedback(g_choice_2);
    136c:	90 e0       	ldi	r25, 0x00	; 0
    136e:	0e 94 64 01 	call	0x2c8	; 0x2c8 <Door_Feedback>
    1372:	08 95       	ret
					} else {
					UART_Show_Invalid();
    1374:	0e 94 26 0c 	call	0x184c	; 0x184c <UART_Show_Invalid>
    1378:	08 95       	ret
				}
				break;
				case 4: // Dimmer Controller
				if (g_choice_2 < 3) {
    137a:	83 30       	cpi	r24, 0x03	; 3
    137c:	18 f4       	brcc	.+6      	; 0x1384 <UART_Process+0x1d2>
					Dimmer_Feedback(g_choice_2);
    137e:	0e 94 0a 01 	call	0x214	; 0x214 <Dimmer_Feedback>
    1382:	08 95       	ret
					} else {
					UART_Show_Invalid();
    1384:	0e 94 26 0c 	call	0x184c	; 0x184c <UART_Show_Invalid>
    1388:	08 95       	ret
				}
				break;
				case 6: // New User
				strcpy(New_Username, UART_Buffer);
    138a:	66 e7       	ldi	r22, 0x76	; 118
    138c:	76 e0       	ldi	r23, 0x06	; 6
    138e:	8f e7       	ldi	r24, 0x7F	; 127
    1390:	96 e0       	ldi	r25, 0x06	; 6
    1392:	0e 94 47 0d 	call	0x1a8e	; 0x1a8e <strcpy>
				UART_Show_Request_NewUserPassword();
    1396:	0e 94 de 0c 	call	0x19bc	; 0x19bc <UART_Show_Request_NewUserPassword>
				UART_global_Flag++;
    139a:	80 91 72 00 	lds	r24, 0x0072	; 0x800072 <UART_global_Flag>
    139e:	8f 5f       	subi	r24, 0xFF	; 255
    13a0:	80 93 72 00 	sts	0x0072, r24	; 0x800072 <UART_global_Flag>
				break;
    13a4:	08 95       	ret
				case 7: // Delete User
				if (EEPROM_Read_UserID_Exist(g_choice_2)) {
    13a6:	0e 94 f4 02 	call	0x5e8	; 0x5e8 <EEPROM_Read_UserID_Exist>
    13aa:	88 23       	and	r24, r24
    13ac:	49 f0       	breq	.+18     	; 0x13c0 <UART_Process+0x20e>
					EEPROM_Delete_User(g_choice_2);
    13ae:	80 91 7e 06 	lds	r24, 0x067E	; 0x80067e <g_choice_2>
    13b2:	0e 94 01 03 	call	0x602	; 0x602 <EEPROM_Delete_User>
					UART_Send_String_Polling_8("User Deleted Successfully");
    13b6:	8a e3       	ldi	r24, 0x3A	; 58
    13b8:	93 e0       	ldi	r25, 0x03	; 3
    13ba:	0e 94 e8 0b 	call	0x17d0	; 0x17d0 <UART_Send_String_Polling_8>
    13be:	04 c0       	rjmp	.+8      	; 0x13c8 <UART_Process+0x216>
					} else {
					UART_Send_String_Polling_8("User Does not Exist!");
    13c0:	84 e5       	ldi	r24, 0x54	; 84
    13c2:	93 e0       	ldi	r25, 0x03	; 3
    13c4:	0e 94 e8 0b 	call	0x17d0	; 0x17d0 <UART_Send_String_Polling_8>
				}
				UART_global_Flag = 1;
    13c8:	81 e0       	ldi	r24, 0x01	; 1
    13ca:	80 93 72 00 	sts	0x0072, r24	; 0x800072 <UART_global_Flag>
				break;
    13ce:	08 95       	ret
			}
			break;
			case 6:
			strcpy(New_Password, UART_Buffer);
    13d0:	66 e7       	ldi	r22, 0x76	; 118
    13d2:	76 e0       	ldi	r23, 0x06	; 6
    13d4:	87 e8       	ldi	r24, 0x87	; 135
    13d6:	96 e0       	ldi	r25, 0x06	; 6
    13d8:	0e 94 47 0d 	call	0x1a8e	; 0x1a8e <strcpy>
			New_UserID = EEPROM_Find_Empty_ID();
    13dc:	0e 94 0a 03 	call	0x614	; 0x614 <EEPROM_Find_Empty_ID>
    13e0:	80 93 75 06 	sts	0x0675, r24	; 0x800675 <New_UserID>
			if (New_UserID != 0) {
    13e4:	88 23       	and	r24, r24
    13e6:	31 f0       	breq	.+12     	; 0x13f4 <UART_Process+0x242>
				EEPROM_Reg_New_User(New_UserID, New_Username, New_Password);
    13e8:	47 e8       	ldi	r20, 0x87	; 135
    13ea:	56 e0       	ldi	r21, 0x06	; 6
    13ec:	6f e7       	ldi	r22, 0x7F	; 127
    13ee:	76 e0       	ldi	r23, 0x06	; 6
    13f0:	0e 94 23 03 	call	0x646	; 0x646 <EEPROM_Reg_New_User>
			}
			UART_Send_String_Polling_8("New User Registered Success!\n");
    13f4:	89 e6       	ldi	r24, 0x69	; 105
    13f6:	93 e0       	ldi	r25, 0x03	; 3
    13f8:	0e 94 e8 0b 	call	0x17d0	; 0x17d0 <UART_Send_String_Polling_8>
			UART_Send_String_Polling_8("New User ID: ");
    13fc:	87 e8       	ldi	r24, 0x87	; 135
    13fe:	93 e0       	ldi	r25, 0x03	; 3
    1400:	0e 94 e8 0b 	call	0x17d0	; 0x17d0 <UART_Send_String_Polling_8>
			UART_Send_Byte_Polling_8(New_UserID + 48);
    1404:	80 91 75 06 	lds	r24, 0x0675	; 0x800675 <New_UserID>
    1408:	80 5d       	subi	r24, 0xD0	; 208
    140a:	0e 94 e4 0b 	call	0x17c8	; 0x17c8 <UART_Send_Byte_Polling_8>
			UART_Send_String_Polling_8("\n");
    140e:	84 e3       	ldi	r24, 0x34	; 52
    1410:	95 e0       	ldi	r25, 0x05	; 5
    1412:	0e 94 e8 0b 	call	0x17d0	; 0x17d0 <UART_Send_String_Polling_8>
			UART_Send_String_Polling_8("New User Username: ");
    1416:	85 e9       	ldi	r24, 0x95	; 149
    1418:	93 e0       	ldi	r25, 0x03	; 3
    141a:	0e 94 e8 0b 	call	0x17d0	; 0x17d0 <UART_Send_String_Polling_8>
			UART_Send_String_Polling_8(New_Username);
    141e:	8f e7       	ldi	r24, 0x7F	; 127
    1420:	96 e0       	ldi	r25, 0x06	; 6
    1422:	0e 94 e8 0b 	call	0x17d0	; 0x17d0 <UART_Send_String_Polling_8>
			UART_Send_String_Polling_8("\n");
    1426:	84 e3       	ldi	r24, 0x34	; 52
    1428:	95 e0       	ldi	r25, 0x05	; 5
    142a:	0e 94 e8 0b 	call	0x17d0	; 0x17d0 <UART_Send_String_Polling_8>
			UART_global_Flag = 1;
    142e:	81 e0       	ldi	r24, 0x01	; 1
    1430:	80 93 72 00 	sts	0x0072, r24	; 0x800072 <UART_global_Flag>
    1434:	08 95       	ret

00001436 <main>:



int main(void)
{
	Smart_Initialization();
    1436:	0e 94 89 08 	call	0x1112	; 0x1112 <Smart_Initialization>

	while (1) 
    {
		UART_Process();
    143a:	0e 94 d9 08 	call	0x11b2	; 0x11b2 <UART_Process>
		LCD_Process();
    143e:	0e 94 fd 06 	call	0xdfa	; 0xdfa <LCD_Process>
    1442:	fb cf       	rjmp	.-10     	; 0x143a <main+0x4>

00001444 <DIO_Set_Pin_Direction>:
		}else if(Output == Low){
		switch(port){
			case PORTAx:PORTA_Reg=0x00;break;
			case PORTBx:PORTB_Reg=0x00;break;
			case PORTCx:PORTC_Reg=0x00;break;
			case PORTDx:PORTD_Reg=0x00;break;
    1444:	41 30       	cpi	r20, 0x01	; 1
    1446:	a1 f5       	brne	.+104    	; 0x14b0 <DIO_Set_Pin_Direction+0x6c>
    1448:	81 30       	cpi	r24, 0x01	; 1
    144a:	89 f0       	breq	.+34     	; 0x146e <DIO_Set_Pin_Direction+0x2a>
    144c:	28 f0       	brcs	.+10     	; 0x1458 <DIO_Set_Pin_Direction+0x14>
    144e:	82 30       	cpi	r24, 0x02	; 2
    1450:	c9 f0       	breq	.+50     	; 0x1484 <DIO_Set_Pin_Direction+0x40>
    1452:	83 30       	cpi	r24, 0x03	; 3
    1454:	11 f1       	breq	.+68     	; 0x149a <DIO_Set_Pin_Direction+0x56>
    1456:	08 95       	ret
    1458:	2a b3       	in	r18, 0x1a	; 26
    145a:	81 e0       	ldi	r24, 0x01	; 1
    145c:	90 e0       	ldi	r25, 0x00	; 0
    145e:	02 c0       	rjmp	.+4      	; 0x1464 <DIO_Set_Pin_Direction+0x20>
    1460:	88 0f       	add	r24, r24
    1462:	99 1f       	adc	r25, r25
    1464:	6a 95       	dec	r22
    1466:	e2 f7       	brpl	.-8      	; 0x1460 <DIO_Set_Pin_Direction+0x1c>
    1468:	82 2b       	or	r24, r18
    146a:	8a bb       	out	0x1a, r24	; 26
    146c:	08 95       	ret
    146e:	27 b3       	in	r18, 0x17	; 23
    1470:	81 e0       	ldi	r24, 0x01	; 1
    1472:	90 e0       	ldi	r25, 0x00	; 0
    1474:	02 c0       	rjmp	.+4      	; 0x147a <DIO_Set_Pin_Direction+0x36>
    1476:	88 0f       	add	r24, r24
    1478:	99 1f       	adc	r25, r25
    147a:	6a 95       	dec	r22
    147c:	e2 f7       	brpl	.-8      	; 0x1476 <DIO_Set_Pin_Direction+0x32>
    147e:	82 2b       	or	r24, r18
    1480:	87 bb       	out	0x17, r24	; 23
    1482:	08 95       	ret
    1484:	24 b3       	in	r18, 0x14	; 20
    1486:	81 e0       	ldi	r24, 0x01	; 1
    1488:	90 e0       	ldi	r25, 0x00	; 0
    148a:	02 c0       	rjmp	.+4      	; 0x1490 <DIO_Set_Pin_Direction+0x4c>
    148c:	88 0f       	add	r24, r24
    148e:	99 1f       	adc	r25, r25
    1490:	6a 95       	dec	r22
    1492:	e2 f7       	brpl	.-8      	; 0x148c <DIO_Set_Pin_Direction+0x48>
    1494:	82 2b       	or	r24, r18
    1496:	84 bb       	out	0x14, r24	; 20
    1498:	08 95       	ret
    149a:	21 b3       	in	r18, 0x11	; 17
    149c:	81 e0       	ldi	r24, 0x01	; 1
    149e:	90 e0       	ldi	r25, 0x00	; 0
    14a0:	02 c0       	rjmp	.+4      	; 0x14a6 <DIO_Set_Pin_Direction+0x62>
    14a2:	88 0f       	add	r24, r24
    14a4:	99 1f       	adc	r25, r25
    14a6:	6a 95       	dec	r22
    14a8:	e2 f7       	brpl	.-8      	; 0x14a2 <DIO_Set_Pin_Direction+0x5e>
    14aa:	82 2b       	or	r24, r18
    14ac:	81 bb       	out	0x11, r24	; 17
    14ae:	08 95       	ret
    14b0:	41 11       	cpse	r20, r1
    14b2:	37 c0       	rjmp	.+110    	; 0x1522 <DIO_Set_Pin_Direction+0xde>
    14b4:	81 30       	cpi	r24, 0x01	; 1
    14b6:	91 f0       	breq	.+36     	; 0x14dc <DIO_Set_Pin_Direction+0x98>
    14b8:	28 f0       	brcs	.+10     	; 0x14c4 <DIO_Set_Pin_Direction+0x80>
    14ba:	82 30       	cpi	r24, 0x02	; 2
    14bc:	d9 f0       	breq	.+54     	; 0x14f4 <DIO_Set_Pin_Direction+0xb0>
    14be:	83 30       	cpi	r24, 0x03	; 3
    14c0:	29 f1       	breq	.+74     	; 0x150c <DIO_Set_Pin_Direction+0xc8>
    14c2:	08 95       	ret
    14c4:	2a b3       	in	r18, 0x1a	; 26
    14c6:	81 e0       	ldi	r24, 0x01	; 1
    14c8:	90 e0       	ldi	r25, 0x00	; 0
    14ca:	02 c0       	rjmp	.+4      	; 0x14d0 <DIO_Set_Pin_Direction+0x8c>
    14cc:	88 0f       	add	r24, r24
    14ce:	99 1f       	adc	r25, r25
    14d0:	6a 95       	dec	r22
    14d2:	e2 f7       	brpl	.-8      	; 0x14cc <DIO_Set_Pin_Direction+0x88>
    14d4:	80 95       	com	r24
    14d6:	82 23       	and	r24, r18
    14d8:	8a bb       	out	0x1a, r24	; 26
    14da:	08 95       	ret
    14dc:	27 b3       	in	r18, 0x17	; 23
    14de:	81 e0       	ldi	r24, 0x01	; 1
    14e0:	90 e0       	ldi	r25, 0x00	; 0
    14e2:	02 c0       	rjmp	.+4      	; 0x14e8 <DIO_Set_Pin_Direction+0xa4>
    14e4:	88 0f       	add	r24, r24
    14e6:	99 1f       	adc	r25, r25
    14e8:	6a 95       	dec	r22
    14ea:	e2 f7       	brpl	.-8      	; 0x14e4 <DIO_Set_Pin_Direction+0xa0>
    14ec:	80 95       	com	r24
    14ee:	82 23       	and	r24, r18
    14f0:	87 bb       	out	0x17, r24	; 23
    14f2:	08 95       	ret
    14f4:	24 b3       	in	r18, 0x14	; 20
    14f6:	81 e0       	ldi	r24, 0x01	; 1
    14f8:	90 e0       	ldi	r25, 0x00	; 0
    14fa:	02 c0       	rjmp	.+4      	; 0x1500 <DIO_Set_Pin_Direction+0xbc>
    14fc:	88 0f       	add	r24, r24
    14fe:	99 1f       	adc	r25, r25
    1500:	6a 95       	dec	r22
    1502:	e2 f7       	brpl	.-8      	; 0x14fc <DIO_Set_Pin_Direction+0xb8>
    1504:	80 95       	com	r24
    1506:	82 23       	and	r24, r18
    1508:	84 bb       	out	0x14, r24	; 20
    150a:	08 95       	ret
    150c:	21 b3       	in	r18, 0x11	; 17
    150e:	81 e0       	ldi	r24, 0x01	; 1
    1510:	90 e0       	ldi	r25, 0x00	; 0
    1512:	02 c0       	rjmp	.+4      	; 0x1518 <DIO_Set_Pin_Direction+0xd4>
    1514:	88 0f       	add	r24, r24
    1516:	99 1f       	adc	r25, r25
    1518:	6a 95       	dec	r22
    151a:	e2 f7       	brpl	.-8      	; 0x1514 <DIO_Set_Pin_Direction+0xd0>
    151c:	80 95       	com	r24
    151e:	82 23       	and	r24, r18
    1520:	81 bb       	out	0x11, r24	; 17
    1522:	08 95       	ret

00001524 <DIO_Set_Pin_Output>:
		}
	}
}

void DIO_Set_Pin_Output(PORT port,PIN pin,DIO_VALUE Output){
	if(Output == High){
    1524:	41 30       	cpi	r20, 0x01	; 1
    1526:	a1 f5       	brne	.+104    	; 0x1590 <DIO_Set_Pin_Output+0x6c>
		switch(port){
    1528:	81 30       	cpi	r24, 0x01	; 1
    152a:	89 f0       	breq	.+34     	; 0x154e <DIO_Set_Pin_Output+0x2a>
    152c:	28 f0       	brcs	.+10     	; 0x1538 <DIO_Set_Pin_Output+0x14>
    152e:	82 30       	cpi	r24, 0x02	; 2
    1530:	c9 f0       	breq	.+50     	; 0x1564 <DIO_Set_Pin_Output+0x40>
    1532:	83 30       	cpi	r24, 0x03	; 3
    1534:	11 f1       	breq	.+68     	; 0x157a <DIO_Set_Pin_Output+0x56>
    1536:	08 95       	ret
			case PORTAx: Set(PORTA_Reg,pin) ;break;
    1538:	2b b3       	in	r18, 0x1b	; 27
    153a:	81 e0       	ldi	r24, 0x01	; 1
    153c:	90 e0       	ldi	r25, 0x00	; 0
    153e:	02 c0       	rjmp	.+4      	; 0x1544 <DIO_Set_Pin_Output+0x20>
    1540:	88 0f       	add	r24, r24
    1542:	99 1f       	adc	r25, r25
    1544:	6a 95       	dec	r22
    1546:	e2 f7       	brpl	.-8      	; 0x1540 <DIO_Set_Pin_Output+0x1c>
    1548:	82 2b       	or	r24, r18
    154a:	8b bb       	out	0x1b, r24	; 27
    154c:	08 95       	ret
			case PORTBx: Set(PORTB_Reg,pin) ;break;
    154e:	28 b3       	in	r18, 0x18	; 24
    1550:	81 e0       	ldi	r24, 0x01	; 1
    1552:	90 e0       	ldi	r25, 0x00	; 0
    1554:	02 c0       	rjmp	.+4      	; 0x155a <DIO_Set_Pin_Output+0x36>
    1556:	88 0f       	add	r24, r24
    1558:	99 1f       	adc	r25, r25
    155a:	6a 95       	dec	r22
    155c:	e2 f7       	brpl	.-8      	; 0x1556 <DIO_Set_Pin_Output+0x32>
    155e:	82 2b       	or	r24, r18
    1560:	88 bb       	out	0x18, r24	; 24
    1562:	08 95       	ret
			case PORTCx: Set(PORTC_Reg,pin) ;break;
    1564:	25 b3       	in	r18, 0x15	; 21
    1566:	81 e0       	ldi	r24, 0x01	; 1
    1568:	90 e0       	ldi	r25, 0x00	; 0
    156a:	02 c0       	rjmp	.+4      	; 0x1570 <DIO_Set_Pin_Output+0x4c>
    156c:	88 0f       	add	r24, r24
    156e:	99 1f       	adc	r25, r25
    1570:	6a 95       	dec	r22
    1572:	e2 f7       	brpl	.-8      	; 0x156c <DIO_Set_Pin_Output+0x48>
    1574:	82 2b       	or	r24, r18
    1576:	85 bb       	out	0x15, r24	; 21
    1578:	08 95       	ret
			case PORTDx: Set(PORTD_Reg,pin) ;break;
    157a:	22 b3       	in	r18, 0x12	; 18
    157c:	81 e0       	ldi	r24, 0x01	; 1
    157e:	90 e0       	ldi	r25, 0x00	; 0
    1580:	02 c0       	rjmp	.+4      	; 0x1586 <DIO_Set_Pin_Output+0x62>
    1582:	88 0f       	add	r24, r24
    1584:	99 1f       	adc	r25, r25
    1586:	6a 95       	dec	r22
    1588:	e2 f7       	brpl	.-8      	; 0x1582 <DIO_Set_Pin_Output+0x5e>
    158a:	82 2b       	or	r24, r18
    158c:	82 bb       	out	0x12, r24	; 18
    158e:	08 95       	ret
			default:break;
		}
	}
	else if(Output == Low){
    1590:	41 11       	cpse	r20, r1
    1592:	38 c0       	rjmp	.+112    	; 0x1604 <DIO_Set_Pin_Output+0xe0>
		switch(port){
    1594:	81 30       	cpi	r24, 0x01	; 1
    1596:	91 f0       	breq	.+36     	; 0x15bc <DIO_Set_Pin_Output+0x98>
    1598:	28 f0       	brcs	.+10     	; 0x15a4 <DIO_Set_Pin_Output+0x80>
    159a:	82 30       	cpi	r24, 0x02	; 2
    159c:	d9 f0       	breq	.+54     	; 0x15d4 <DIO_Set_Pin_Output+0xb0>
    159e:	83 30       	cpi	r24, 0x03	; 3
    15a0:	29 f1       	breq	.+74     	; 0x15ec <DIO_Set_Pin_Output+0xc8>
    15a2:	08 95       	ret
			case PORTAx: Clear(PORTA_Reg,pin);break;
    15a4:	2b b3       	in	r18, 0x1b	; 27
    15a6:	81 e0       	ldi	r24, 0x01	; 1
    15a8:	90 e0       	ldi	r25, 0x00	; 0
    15aa:	02 c0       	rjmp	.+4      	; 0x15b0 <DIO_Set_Pin_Output+0x8c>
    15ac:	88 0f       	add	r24, r24
    15ae:	99 1f       	adc	r25, r25
    15b0:	6a 95       	dec	r22
    15b2:	e2 f7       	brpl	.-8      	; 0x15ac <DIO_Set_Pin_Output+0x88>
    15b4:	80 95       	com	r24
    15b6:	82 23       	and	r24, r18
    15b8:	8b bb       	out	0x1b, r24	; 27
    15ba:	08 95       	ret
			case PORTBx: Clear(PORTB_Reg,pin);break;
    15bc:	28 b3       	in	r18, 0x18	; 24
    15be:	81 e0       	ldi	r24, 0x01	; 1
    15c0:	90 e0       	ldi	r25, 0x00	; 0
    15c2:	02 c0       	rjmp	.+4      	; 0x15c8 <DIO_Set_Pin_Output+0xa4>
    15c4:	88 0f       	add	r24, r24
    15c6:	99 1f       	adc	r25, r25
    15c8:	6a 95       	dec	r22
    15ca:	e2 f7       	brpl	.-8      	; 0x15c4 <DIO_Set_Pin_Output+0xa0>
    15cc:	80 95       	com	r24
    15ce:	82 23       	and	r24, r18
    15d0:	88 bb       	out	0x18, r24	; 24
    15d2:	08 95       	ret
			case PORTCx: Clear(PORTC_Reg,pin);break;
    15d4:	25 b3       	in	r18, 0x15	; 21
    15d6:	81 e0       	ldi	r24, 0x01	; 1
    15d8:	90 e0       	ldi	r25, 0x00	; 0
    15da:	02 c0       	rjmp	.+4      	; 0x15e0 <DIO_Set_Pin_Output+0xbc>
    15dc:	88 0f       	add	r24, r24
    15de:	99 1f       	adc	r25, r25
    15e0:	6a 95       	dec	r22
    15e2:	e2 f7       	brpl	.-8      	; 0x15dc <DIO_Set_Pin_Output+0xb8>
    15e4:	80 95       	com	r24
    15e6:	82 23       	and	r24, r18
    15e8:	85 bb       	out	0x15, r24	; 21
    15ea:	08 95       	ret
			case PORTDx: Clear(PORTD_Reg,pin);break;
    15ec:	22 b3       	in	r18, 0x12	; 18
    15ee:	81 e0       	ldi	r24, 0x01	; 1
    15f0:	90 e0       	ldi	r25, 0x00	; 0
    15f2:	02 c0       	rjmp	.+4      	; 0x15f8 <DIO_Set_Pin_Output+0xd4>
    15f4:	88 0f       	add	r24, r24
    15f6:	99 1f       	adc	r25, r25
    15f8:	6a 95       	dec	r22
    15fa:	e2 f7       	brpl	.-8      	; 0x15f4 <DIO_Set_Pin_Output+0xd0>
    15fc:	80 95       	com	r24
    15fe:	82 23       	and	r24, r18
    1600:	82 bb       	out	0x12, r24	; 18
    1602:	08 95       	ret
			default:break;
		}
	}
	else if(Output == Toggle){
    1604:	42 30       	cpi	r20, 0x02	; 2
    1606:	99 f5       	brne	.+102    	; 0x166e <DIO_Set_Pin_Output+0x14a>
		switch(port){
    1608:	81 30       	cpi	r24, 0x01	; 1
    160a:	89 f0       	breq	.+34     	; 0x162e <DIO_Set_Pin_Output+0x10a>
    160c:	28 f0       	brcs	.+10     	; 0x1618 <DIO_Set_Pin_Output+0xf4>
    160e:	82 30       	cpi	r24, 0x02	; 2
    1610:	c9 f0       	breq	.+50     	; 0x1644 <DIO_Set_Pin_Output+0x120>
    1612:	83 30       	cpi	r24, 0x03	; 3
    1614:	11 f1       	breq	.+68     	; 0x165a <DIO_Set_Pin_Output+0x136>
    1616:	08 95       	ret
			case PORTAx: Toggle(PORTA_Reg,pin);break;
    1618:	2b b3       	in	r18, 0x1b	; 27
    161a:	81 e0       	ldi	r24, 0x01	; 1
    161c:	90 e0       	ldi	r25, 0x00	; 0
    161e:	02 c0       	rjmp	.+4      	; 0x1624 <DIO_Set_Pin_Output+0x100>
    1620:	88 0f       	add	r24, r24
    1622:	99 1f       	adc	r25, r25
    1624:	6a 95       	dec	r22
    1626:	e2 f7       	brpl	.-8      	; 0x1620 <DIO_Set_Pin_Output+0xfc>
    1628:	82 27       	eor	r24, r18
    162a:	8b bb       	out	0x1b, r24	; 27
    162c:	08 95       	ret
			case PORTBx: Toggle(PORTB_Reg,pin);break;
    162e:	28 b3       	in	r18, 0x18	; 24
    1630:	81 e0       	ldi	r24, 0x01	; 1
    1632:	90 e0       	ldi	r25, 0x00	; 0
    1634:	02 c0       	rjmp	.+4      	; 0x163a <DIO_Set_Pin_Output+0x116>
    1636:	88 0f       	add	r24, r24
    1638:	99 1f       	adc	r25, r25
    163a:	6a 95       	dec	r22
    163c:	e2 f7       	brpl	.-8      	; 0x1636 <DIO_Set_Pin_Output+0x112>
    163e:	82 27       	eor	r24, r18
    1640:	88 bb       	out	0x18, r24	; 24
    1642:	08 95       	ret
			case PORTCx: Toggle(PORTC_Reg,pin);break;
    1644:	25 b3       	in	r18, 0x15	; 21
    1646:	81 e0       	ldi	r24, 0x01	; 1
    1648:	90 e0       	ldi	r25, 0x00	; 0
    164a:	02 c0       	rjmp	.+4      	; 0x1650 <DIO_Set_Pin_Output+0x12c>
    164c:	88 0f       	add	r24, r24
    164e:	99 1f       	adc	r25, r25
    1650:	6a 95       	dec	r22
    1652:	e2 f7       	brpl	.-8      	; 0x164c <DIO_Set_Pin_Output+0x128>
    1654:	82 27       	eor	r24, r18
    1656:	85 bb       	out	0x15, r24	; 21
    1658:	08 95       	ret
			case PORTDx: Toggle(PORTD_Reg,pin);break;
    165a:	22 b3       	in	r18, 0x12	; 18
    165c:	81 e0       	ldi	r24, 0x01	; 1
    165e:	90 e0       	ldi	r25, 0x00	; 0
    1660:	02 c0       	rjmp	.+4      	; 0x1666 <DIO_Set_Pin_Output+0x142>
    1662:	88 0f       	add	r24, r24
    1664:	99 1f       	adc	r25, r25
    1666:	6a 95       	dec	r22
    1668:	e2 f7       	brpl	.-8      	; 0x1662 <DIO_Set_Pin_Output+0x13e>
    166a:	82 27       	eor	r24, r18
    166c:	82 bb       	out	0x12, r24	; 18
    166e:	08 95       	ret

00001670 <DIO_Get_Pin_Value>:
		}			
	}
}

DIO_VALUE DIO_Get_Pin_Value(PORT port,PIN pin){
	switch(port){
    1670:	81 30       	cpi	r24, 0x01	; 1
    1672:	79 f0       	breq	.+30     	; 0x1692 <DIO_Get_Pin_Value+0x22>
    1674:	28 f0       	brcs	.+10     	; 0x1680 <DIO_Get_Pin_Value+0x10>
    1676:	82 30       	cpi	r24, 0x02	; 2
    1678:	a9 f0       	breq	.+42     	; 0x16a4 <DIO_Get_Pin_Value+0x34>
    167a:	83 30       	cpi	r24, 0x03	; 3
    167c:	e1 f0       	breq	.+56     	; 0x16b6 <DIO_Get_Pin_Value+0x46>
    167e:	24 c0       	rjmp	.+72     	; 0x16c8 <DIO_Get_Pin_Value+0x58>
		case PORTAx: return Get(PINA_Reg,pin);break;
    1680:	89 b3       	in	r24, 0x19	; 25
    1682:	90 e0       	ldi	r25, 0x00	; 0
    1684:	02 c0       	rjmp	.+4      	; 0x168a <DIO_Get_Pin_Value+0x1a>
    1686:	95 95       	asr	r25
    1688:	87 95       	ror	r24
    168a:	6a 95       	dec	r22
    168c:	e2 f7       	brpl	.-8      	; 0x1686 <DIO_Get_Pin_Value+0x16>
    168e:	81 70       	andi	r24, 0x01	; 1
    1690:	08 95       	ret
		case PORTBx: return Get(PINB_Reg,pin);break;
    1692:	86 b3       	in	r24, 0x16	; 22
    1694:	90 e0       	ldi	r25, 0x00	; 0
    1696:	02 c0       	rjmp	.+4      	; 0x169c <DIO_Get_Pin_Value+0x2c>
    1698:	95 95       	asr	r25
    169a:	87 95       	ror	r24
    169c:	6a 95       	dec	r22
    169e:	e2 f7       	brpl	.-8      	; 0x1698 <DIO_Get_Pin_Value+0x28>
    16a0:	81 70       	andi	r24, 0x01	; 1
    16a2:	08 95       	ret
		case PORTCx: return Get(PINC_Reg,pin);break;
    16a4:	83 b3       	in	r24, 0x13	; 19
    16a6:	90 e0       	ldi	r25, 0x00	; 0
    16a8:	02 c0       	rjmp	.+4      	; 0x16ae <DIO_Get_Pin_Value+0x3e>
    16aa:	95 95       	asr	r25
    16ac:	87 95       	ror	r24
    16ae:	6a 95       	dec	r22
    16b0:	e2 f7       	brpl	.-8      	; 0x16aa <DIO_Get_Pin_Value+0x3a>
    16b2:	81 70       	andi	r24, 0x01	; 1
    16b4:	08 95       	ret
		case PORTDx: return Get(PIND_Reg,pin);break;
    16b6:	80 b3       	in	r24, 0x10	; 16
    16b8:	90 e0       	ldi	r25, 0x00	; 0
    16ba:	02 c0       	rjmp	.+4      	; 0x16c0 <DIO_Get_Pin_Value+0x50>
    16bc:	95 95       	asr	r25
    16be:	87 95       	ror	r24
    16c0:	6a 95       	dec	r22
    16c2:	e2 f7       	brpl	.-8      	; 0x16bc <DIO_Get_Pin_Value+0x4c>
    16c4:	81 70       	andi	r24, 0x01	; 1
    16c6:	08 95       	ret
		default:return 0;break;
    16c8:	80 e0       	ldi	r24, 0x00	; 0
	}
    16ca:	08 95       	ret

000016cc <GIE_Enable>:
}

void GIE_Enable()
{
	//General Interrupt Enable by Set bit 7 On SREG Register
	Set(SREG_Reg,7);
    16cc:	8f b7       	in	r24, 0x3f	; 63
    16ce:	80 68       	ori	r24, 0x80	; 128
    16d0:	8f bf       	out	0x3f, r24	; 63
    16d2:	08 95       	ret

000016d4 <GIE_Disable>:
}

void GIE_Disable()
{
	//General Interrupt Disable by Set bit 7 On SREG Register
	Clear(SREG_Reg,7);
    16d4:	8f b7       	in	r24, 0x3f	; 63
    16d6:	8f 77       	andi	r24, 0x7F	; 127
    16d8:	8f bf       	out	0x3f, r24	; 63
    16da:	08 95       	ret

000016dc <Timer0_Init>:
	#elif (Timer0_OC0_Pin == Timer_COM_Pin_SET)
	Set(TCCR0_Reg,5);  Set(TCCR0_Reg,4);
	#endif
}
void Timer0_Set_TCNT0_Reg(uint8 value)   {    TCNT0_Reg= value;    }//Timer Register
void Timer0_Set_OCR0_Reg(uint8 value)    {    OCR0_Reg = value;    }//Output Compare Register
    16dc:	83 b7       	in	r24, 0x33	; 51
    16de:	8f 7b       	andi	r24, 0xBF	; 191
    16e0:	83 bf       	out	0x33, r24	; 51
    16e2:	83 b7       	in	r24, 0x33	; 51
    16e4:	87 7f       	andi	r24, 0xF7	; 247
    16e6:	83 bf       	out	0x33, r24	; 51
    16e8:	83 b7       	in	r24, 0x33	; 51
    16ea:	8b 7f       	andi	r24, 0xFB	; 251
    16ec:	83 bf       	out	0x33, r24	; 51
    16ee:	83 b7       	in	r24, 0x33	; 51
    16f0:	8d 7f       	andi	r24, 0xFD	; 253
    16f2:	83 bf       	out	0x33, r24	; 51
    16f4:	83 b7       	in	r24, 0x33	; 51
    16f6:	81 60       	ori	r24, 0x01	; 1
    16f8:	83 bf       	out	0x33, r24	; 51
    16fa:	83 b7       	in	r24, 0x33	; 51
    16fc:	8f 7d       	andi	r24, 0xDF	; 223
    16fe:	83 bf       	out	0x33, r24	; 51
    1700:	83 b7       	in	r24, 0x33	; 51
    1702:	8f 7e       	andi	r24, 0xEF	; 239
    1704:	83 bf       	out	0x33, r24	; 51
    1706:	08 95       	ret

00001708 <Timer0_Enable_Overflow_Interrupt>:
void Timer0_Enable_Overflow_Interrupt()  {    Set(TIMSK_Reg,0);    }
    1708:	89 b7       	in	r24, 0x39	; 57
    170a:	81 60       	ori	r24, 0x01	; 1
    170c:	89 bf       	out	0x39, r24	; 57
    170e:	08 95       	ret

00001710 <TWI_Init>:
	TWCR_Reg =   (1<<5)  | (1<<2) |(1<<7);
	while(Get(TWCR_Reg ,7)  == 0);//Wait till Send Successfully(INT_FLAG DOWN)
}
void TWI_Set_My_Address(uint8 Address)
{
	TWAR_Reg = (TWAR_Reg & 0x01) | (Address<<1);
    1710:	8a e0       	ldi	r24, 0x0A	; 10
    1712:	80 b9       	out	0x00, r24	; 0
    1714:	81 b1       	in	r24, 0x01	; 1
    1716:	81 60       	ori	r24, 0x01	; 1
    1718:	81 b9       	out	0x01, r24	; 1
    171a:	81 b1       	in	r24, 0x01	; 1
    171c:	8d 7f       	andi	r24, 0xFD	; 253
    171e:	81 b9       	out	0x01, r24	; 1
    1720:	86 b7       	in	r24, 0x36	; 54
    1722:	84 60       	ori	r24, 0x04	; 4
    1724:	86 bf       	out	0x36, r24	; 54
    1726:	08 95       	ret

00001728 <TWI_Check_Status>:
    1728:	21 b1       	in	r18, 0x01	; 1
    172a:	90 e0       	ldi	r25, 0x00	; 0
    172c:	28 7f       	andi	r18, 0xF8	; 248
    172e:	30 e0       	ldi	r19, 0x00	; 0
    1730:	82 17       	cp	r24, r18
    1732:	93 07       	cpc	r25, r19
    1734:	11 f4       	brne	.+4      	; 0x173a <TWI_Check_Status+0x12>
    1736:	81 e0       	ldi	r24, 0x01	; 1
    1738:	08 95       	ret
    173a:	80 e0       	ldi	r24, 0x00	; 0
    173c:	08 95       	ret

0000173e <TWI_Send_Stop>:
    173e:	84 e9       	ldi	r24, 0x94	; 148
    1740:	86 bf       	out	0x36, r24	; 54
    1742:	08 95       	ret

00001744 <TWI_MSTR_Send_Start>:
    1744:	84 ea       	ldi	r24, 0xA4	; 164
    1746:	86 bf       	out	0x36, r24	; 54
    1748:	06 b6       	in	r0, 0x36	; 54
    174a:	07 fe       	sbrs	r0, 7
    174c:	fd cf       	rjmp	.-6      	; 0x1748 <TWI_MSTR_Send_Start+0x4>
    174e:	08 95       	ret

00001750 <TWI_Receive_Data>:
}
uint8 TWI_Receive_Data(uint8 ACK_State){
	if(ACK_State == 1)
    1750:	81 30       	cpi	r24, 0x01	; 1
    1752:	19 f4       	brne	.+6      	; 0x175a <TWI_Receive_Data+0xa>
	Set(TWCR_Reg,6);		//SEND ACK IF Input is 1 for ACK
    1754:	86 b7       	in	r24, 0x36	; 54
    1756:	80 64       	ori	r24, 0x40	; 64
    1758:	86 bf       	out	0x36, r24	; 54
	// 	Set(TWCR_Reg,2);			//Enable TWI
	// 	Set(TWCR_Reg,7);			//Set Interrupt Flag to Clear it
	TWCR_Reg =   (1<<7)| (1<<2);
    175a:	84 e8       	ldi	r24, 0x84	; 132
    175c:	86 bf       	out	0x36, r24	; 54
	while(Get(TWCR_Reg,7)== 0);	//Wait for flag to be 0
    175e:	06 b6       	in	r0, 0x36	; 54
    1760:	07 fe       	sbrs	r0, 7
    1762:	fd cf       	rjmp	.-6      	; 0x175e <TWI_Receive_Data+0xe>
	return TWDR_Reg;			//Send back DATA Received Value
    1764:	83 b1       	in	r24, 0x03	; 3
}
    1766:	08 95       	ret

00001768 <TWI_Send_Data>:
void TWI_Send_Data(uint8 Data){
	//TWCR_Reg =0;
	TWDR_Reg = Data;
    1768:	83 b9       	out	0x03, r24	; 3
	//Set(TWCR_Reg,2);// Enable TWI
	//Set(TWCR_Reg,7);// Clear Interrupt Flag
	//TWCR_Reg = 0;
	TWCR_Reg =   (1<<7)| (1<<2);
    176a:	84 e8       	ldi	r24, 0x84	; 132
    176c:	86 bf       	out	0x36, r24	; 54
	while(Get(TWCR_Reg,7)== 0);	//Wait for flag to be 0
    176e:	06 b6       	in	r0, 0x36	; 54
    1770:	07 fe       	sbrs	r0, 7
    1772:	fd cf       	rjmp	.-6      	; 0x176e <TWI_Send_Data+0x6>
    1774:	08 95       	ret

00001776 <UART_Enable_RX_Interrupt>:
}
uint32 UART_Recieve_Number_Polling_32(void){
	uint32 Number;
	Number = 0;
	return Number;
}
    1776:	8a b1       	in	r24, 0x0a	; 10
    1778:	80 68       	ori	r24, 0x80	; 128
    177a:	8a b9       	out	0x0a, r24	; 10
    177c:	08 95       	ret

0000177e <UART_Init>:
    177e:	8a b1       	in	r24, 0x0a	; 10
    1780:	8b 7f       	andi	r24, 0xFB	; 251
    1782:	8a b9       	out	0x0a, r24	; 10
    1784:	80 b5       	in	r24, 0x20	; 32
    1786:	84 60       	ori	r24, 0x04	; 4
    1788:	80 bd       	out	0x20, r24	; 32
    178a:	80 b5       	in	r24, 0x20	; 32
    178c:	82 60       	ori	r24, 0x02	; 2
    178e:	80 bd       	out	0x20, r24	; 32
    1790:	80 b5       	in	r24, 0x20	; 32
    1792:	8f 7b       	andi	r24, 0xBF	; 191
    1794:	80 bd       	out	0x20, r24	; 32
    1796:	80 b5       	in	r24, 0x20	; 32
    1798:	80 68       	ori	r24, 0x80	; 128
    179a:	80 bd       	out	0x20, r24	; 32
    179c:	80 b5       	in	r24, 0x20	; 32
    179e:	8f 7d       	andi	r24, 0xDF	; 223
    17a0:	80 bd       	out	0x20, r24	; 32
    17a2:	80 b5       	in	r24, 0x20	; 32
    17a4:	8f 7e       	andi	r24, 0xEF	; 239
    17a6:	80 bd       	out	0x20, r24	; 32
    17a8:	80 b5       	in	r24, 0x20	; 32
    17aa:	87 7f       	andi	r24, 0xF7	; 247
    17ac:	80 bd       	out	0x20, r24	; 32
    17ae:	10 bc       	out	0x20, r1	; 32
    17b0:	87 e6       	ldi	r24, 0x67	; 103
    17b2:	89 b9       	out	0x09, r24	; 9
    17b4:	8a b1       	in	r24, 0x0a	; 10
    17b6:	80 61       	ori	r24, 0x10	; 16
    17b8:	8a b9       	out	0x0a, r24	; 10
    17ba:	8a b1       	in	r24, 0x0a	; 10
    17bc:	88 60       	ori	r24, 0x08	; 8
    17be:	8a b9       	out	0x0a, r24	; 10
    17c0:	8a b1       	in	r24, 0x0a	; 10
    17c2:	80 68       	ori	r24, 0x80	; 128
    17c4:	8a b9       	out	0x0a, r24	; 10
    17c6:	08 95       	ret

000017c8 <UART_Send_Byte_Polling_8>:
    17c8:	5d 9b       	sbis	0x0b, 5	; 11
    17ca:	fe cf       	rjmp	.-4      	; 0x17c8 <UART_Send_Byte_Polling_8>
    17cc:	8c b9       	out	0x0c, r24	; 12
    17ce:	08 95       	ret

000017d0 <UART_Send_String_Polling_8>:
    17d0:	0f 93       	push	r16
    17d2:	1f 93       	push	r17
    17d4:	cf 93       	push	r28
    17d6:	8c 01       	movw	r16, r24
    17d8:	c0 e0       	ldi	r28, 0x00	; 0
    17da:	03 c0       	rjmp	.+6      	; 0x17e2 <UART_Send_String_Polling_8+0x12>
    17dc:	0e 94 e4 0b 	call	0x17c8	; 0x17c8 <UART_Send_Byte_Polling_8>
    17e0:	cf 5f       	subi	r28, 0xFF	; 255
    17e2:	f8 01       	movw	r30, r16
    17e4:	ec 0f       	add	r30, r28
    17e6:	f1 1d       	adc	r31, r1
    17e8:	80 81       	ld	r24, Z
    17ea:	81 11       	cpse	r24, r1
    17ec:	f7 cf       	rjmp	.-18     	; 0x17dc <UART_Send_String_Polling_8+0xc>
    17ee:	cf 91       	pop	r28
    17f0:	1f 91       	pop	r17
    17f2:	0f 91       	pop	r16
    17f4:	08 95       	ret

000017f6 <UART_Receive_Byte_8>:
    17f6:	5f 9b       	sbis	0x0b, 7	; 11
    17f8:	fe cf       	rjmp	.-4      	; 0x17f6 <UART_Receive_Byte_8>
    17fa:	8c b1       	in	r24, 0x0c	; 12
    17fc:	08 95       	ret

000017fe <UART_Recieve_String_8>:
    17fe:	ef 92       	push	r14
    1800:	ff 92       	push	r15
    1802:	1f 93       	push	r17
    1804:	cf 93       	push	r28
    1806:	df 93       	push	r29
    1808:	7c 01       	movw	r14, r24
    180a:	10 e0       	ldi	r17, 0x00	; 0
    180c:	e7 01       	movw	r28, r14
    180e:	c1 0f       	add	r28, r17
    1810:	d1 1d       	adc	r29, r1
    1812:	0e 94 fb 0b 	call	0x17f6	; 0x17f6 <UART_Receive_Byte_8>
    1816:	88 83       	st	Y, r24
    1818:	8d 30       	cpi	r24, 0x0D	; 13
    181a:	09 f4       	brne	.+2      	; 0x181e <UART_Recieve_String_8+0x20>
    181c:	18 82       	st	Y, r1
    181e:	88 81       	ld	r24, Y
    1820:	8a 30       	cpi	r24, 0x0A	; 10
    1822:	11 f4       	brne	.+4      	; 0x1828 <UART_Recieve_String_8+0x2a>
    1824:	18 82       	st	Y, r1
    1826:	02 c0       	rjmp	.+4      	; 0x182c <UART_Recieve_String_8+0x2e>
    1828:	1f 5f       	subi	r17, 0xFF	; 255
    182a:	f0 cf       	rjmp	.-32     	; 0x180c <UART_Recieve_String_8+0xe>
    182c:	df 91       	pop	r29
    182e:	cf 91       	pop	r28
    1830:	1f 91       	pop	r17
    1832:	ff 90       	pop	r15
    1834:	ef 90       	pop	r14
    1836:	08 95       	ret

00001838 <UART_Show_Request_UserID>:




void UART_Show_Request_UserID(){
	UART_Send_String_Polling_8(" Enter UserID:(1~99)\n");
    1838:	8f ea       	ldi	r24, 0xAF	; 175
    183a:	93 e0       	ldi	r25, 0x03	; 3
    183c:	0e 94 e8 0b 	call	0x17d0	; 0x17d0 <UART_Send_String_Polling_8>
    1840:	08 95       	ret

00001842 <UART_Show_Request_Password>:
}
void UART_Show_Request_Password(){
	UART_Send_String_Polling_8(" Enter Password:\n");
    1842:	85 ec       	ldi	r24, 0xC5	; 197
    1844:	93 e0       	ldi	r25, 0x03	; 3
    1846:	0e 94 e8 0b 	call	0x17d0	; 0x17d0 <UART_Send_String_Polling_8>
    184a:	08 95       	ret

0000184c <UART_Show_Invalid>:
}
void UART_Show_Invalid(){
	UART_Send_String_Polling_8("Invalid input  try Again \n");
    184c:	87 ed       	ldi	r24, 0xD7	; 215
    184e:	93 e0       	ldi	r25, 0x03	; 3
    1850:	0e 94 e8 0b 	call	0x17d0	; 0x17d0 <UART_Send_String_Polling_8>
    1854:	08 95       	ret

00001856 <UART_Show_MainMenu>:
}
void UART_Show_MainMenu(){
	UART_Send_String_Polling_8("Choose Option: \n");
    1856:	82 ef       	ldi	r24, 0xF2	; 242
    1858:	93 e0       	ldi	r25, 0x03	; 3
    185a:	0e 94 e8 0b 	call	0x17d0	; 0x17d0 <UART_Send_String_Polling_8>
	UART_Send_String_Polling_8("(1) Control Led \n");
    185e:	83 e0       	ldi	r24, 0x03	; 3
    1860:	94 e0       	ldi	r25, 0x04	; 4
    1862:	0e 94 e8 0b 	call	0x17d0	; 0x17d0 <UART_Send_String_Polling_8>
	UART_Send_String_Polling_8("(2) Control AC \n");
    1866:	85 e1       	ldi	r24, 0x15	; 21
    1868:	94 e0       	ldi	r25, 0x04	; 4
    186a:	0e 94 e8 0b 	call	0x17d0	; 0x17d0 <UART_Send_String_Polling_8>
	UART_Send_String_Polling_8("(3) Control Door \n");
    186e:	86 e2       	ldi	r24, 0x26	; 38
    1870:	94 e0       	ldi	r25, 0x04	; 4
    1872:	0e 94 e8 0b 	call	0x17d0	; 0x17d0 <UART_Send_String_Polling_8>
	UART_Send_String_Polling_8("(4) Control Dimmer \n");
    1876:	89 e3       	ldi	r24, 0x39	; 57
    1878:	94 e0       	ldi	r25, 0x04	; 4
    187a:	0e 94 e8 0b 	call	0x17d0	; 0x17d0 <UART_Send_String_Polling_8>
	UART_Send_String_Polling_8("(5) Show Users list \n");
    187e:	8e e4       	ldi	r24, 0x4E	; 78
    1880:	94 e0       	ldi	r25, 0x04	; 4
    1882:	0e 94 e8 0b 	call	0x17d0	; 0x17d0 <UART_Send_String_Polling_8>
	UART_Send_String_Polling_8("(6) Create New User \n");
    1886:	84 e6       	ldi	r24, 0x64	; 100
    1888:	94 e0       	ldi	r25, 0x04	; 4
    188a:	0e 94 e8 0b 	call	0x17d0	; 0x17d0 <UART_Send_String_Polling_8>
	UART_Send_String_Polling_8("(7) Delete User \n");
    188e:	8a e7       	ldi	r24, 0x7A	; 122
    1890:	94 e0       	ldi	r25, 0x04	; 4
    1892:	0e 94 e8 0b 	call	0x17d0	; 0x17d0 <UART_Send_String_Polling_8>
    1896:	08 95       	ret

00001898 <UART_Show_Control_Leds>:
}
void UART_Show_Control_Leds(){
	UART_Send_String_Polling_8("(1) Toggle Led 1 \n");
    1898:	8c e8       	ldi	r24, 0x8C	; 140
    189a:	94 e0       	ldi	r25, 0x04	; 4
    189c:	0e 94 e8 0b 	call	0x17d0	; 0x17d0 <UART_Send_String_Polling_8>
	UART_Send_String_Polling_8("(2) Toggle Led 2 \n");
    18a0:	8f e9       	ldi	r24, 0x9F	; 159
    18a2:	94 e0       	ldi	r25, 0x04	; 4
    18a4:	0e 94 e8 0b 	call	0x17d0	; 0x17d0 <UART_Send_String_Polling_8>
	UART_Send_String_Polling_8("(3) Toggle Led 3 \n");
    18a8:	82 eb       	ldi	r24, 0xB2	; 178
    18aa:	94 e0       	ldi	r25, 0x04	; 4
    18ac:	0e 94 e8 0b 	call	0x17d0	; 0x17d0 <UART_Send_String_Polling_8>
	UART_Send_String_Polling_8("(4) Toggle Led 4 \n");
    18b0:	85 ec       	ldi	r24, 0xC5	; 197
    18b2:	94 e0       	ldi	r25, 0x04	; 4
    18b4:	0e 94 e8 0b 	call	0x17d0	; 0x17d0 <UART_Send_String_Polling_8>
	UART_Send_String_Polling_8("(5) Toggle Led 5 \n");
    18b8:	88 ed       	ldi	r24, 0xD8	; 216
    18ba:	94 e0       	ldi	r25, 0x04	; 4
    18bc:	0e 94 e8 0b 	call	0x17d0	; 0x17d0 <UART_Send_String_Polling_8>
	UART_Send_String_Polling_8("(0) Back \n");
    18c0:	8b ee       	ldi	r24, 0xEB	; 235
    18c2:	94 e0       	ldi	r25, 0x04	; 4
    18c4:	0e 94 e8 0b 	call	0x17d0	; 0x17d0 <UART_Send_String_Polling_8>
    18c8:	08 95       	ret

000018ca <UART_Show_Control_AC>:
}
void UART_Show_Control_AC(){
	UART_Send_String_Polling_8("(1) AC Auto \n");
    18ca:	86 ef       	ldi	r24, 0xF6	; 246
    18cc:	94 e0       	ldi	r25, 0x04	; 4
    18ce:	0e 94 e8 0b 	call	0x17d0	; 0x17d0 <UART_Send_String_Polling_8>
	UART_Send_String_Polling_8("(2) AC Manual Turn Off \n");
    18d2:	84 e0       	ldi	r24, 0x04	; 4
    18d4:	95 e0       	ldi	r25, 0x05	; 5
    18d6:	0e 94 e8 0b 	call	0x17d0	; 0x17d0 <UART_Send_String_Polling_8>
	UART_Send_String_Polling_8("(3) AC Manual Turn On  \n");
    18da:	8d e1       	ldi	r24, 0x1D	; 29
    18dc:	95 e0       	ldi	r25, 0x05	; 5
    18de:	0e 94 e8 0b 	call	0x17d0	; 0x17d0 <UART_Send_String_Polling_8>
	UART_Send_String_Polling_8("(0) Back \n");
    18e2:	8b ee       	ldi	r24, 0xEB	; 235
    18e4:	94 e0       	ldi	r25, 0x04	; 4
    18e6:	0e 94 e8 0b 	call	0x17d0	; 0x17d0 <UART_Send_String_Polling_8>
    18ea:	08 95       	ret

000018ec <UART_Show_Control_Door>:
}
void UART_Show_Control_Door(){
	UART_Send_String_Polling_8("(1) Open Door Lock \n");
    18ec:	86 e3       	ldi	r24, 0x36	; 54
    18ee:	95 e0       	ldi	r25, 0x05	; 5
    18f0:	0e 94 e8 0b 	call	0x17d0	; 0x17d0 <UART_Send_String_Polling_8>
	UART_Send_String_Polling_8("(2) Close Door Lock \n");
    18f4:	8b e4       	ldi	r24, 0x4B	; 75
    18f6:	95 e0       	ldi	r25, 0x05	; 5
    18f8:	0e 94 e8 0b 	call	0x17d0	; 0x17d0 <UART_Send_String_Polling_8>
	UART_Send_String_Polling_8("(0) Back \n");
    18fc:	8b ee       	ldi	r24, 0xEB	; 235
    18fe:	94 e0       	ldi	r25, 0x04	; 4
    1900:	0e 94 e8 0b 	call	0x17d0	; 0x17d0 <UART_Send_String_Polling_8>
    1904:	08 95       	ret

00001906 <UART_Show_Control_Dimmer>:

}
void UART_Show_Control_Dimmer(){
	UART_Send_String_Polling_8("(1) Dimmer Up \n");
    1906:	81 e6       	ldi	r24, 0x61	; 97
    1908:	95 e0       	ldi	r25, 0x05	; 5
    190a:	0e 94 e8 0b 	call	0x17d0	; 0x17d0 <UART_Send_String_Polling_8>
	UART_Send_String_Polling_8("(2) Dimmer Down \n");
    190e:	81 e7       	ldi	r24, 0x71	; 113
    1910:	95 e0       	ldi	r25, 0x05	; 5
    1912:	0e 94 e8 0b 	call	0x17d0	; 0x17d0 <UART_Send_String_Polling_8>
	UART_Send_String_Polling_8("(3) Dimmer Off \n");
    1916:	83 e8       	ldi	r24, 0x83	; 131
    1918:	95 e0       	ldi	r25, 0x05	; 5
    191a:	0e 94 e8 0b 	call	0x17d0	; 0x17d0 <UART_Send_String_Polling_8>
	UART_Send_String_Polling_8("(4) Dimmer On \n");
    191e:	84 e9       	ldi	r24, 0x94	; 148
    1920:	95 e0       	ldi	r25, 0x05	; 5
    1922:	0e 94 e8 0b 	call	0x17d0	; 0x17d0 <UART_Send_String_Polling_8>
	UART_Send_String_Polling_8("(0) Back \n");
    1926:	8b ee       	ldi	r24, 0xEB	; 235
    1928:	94 e0       	ldi	r25, 0x04	; 4
    192a:	0e 94 e8 0b 	call	0x17d0	; 0x17d0 <UART_Send_String_Polling_8>
    192e:	08 95       	ret

00001930 <UART_Show_User_List>:

}

void UART_Show_User_List(){
    1930:	1f 93       	push	r17
    1932:	cf 93       	push	r28
    1934:	df 93       	push	r29
    1936:	cd b7       	in	r28, 0x3d	; 61
    1938:	de b7       	in	r29, 0x3e	; 62
    193a:	28 97       	sbiw	r28, 0x08	; 8
    193c:	0f b6       	in	r0, 0x3f	; 63
    193e:	f8 94       	cli
    1940:	de bf       	out	0x3e, r29	; 62
    1942:	0f be       	out	0x3f, r0	; 63
    1944:	cd bf       	out	0x3d, r28	; 61
	sint8 Usernamex[8];
	for(uint8 id = 1;id<MAX_Users_Count;id++){
    1946:	11 e0       	ldi	r17, 0x01	; 1
    1948:	21 c0       	rjmp	.+66     	; 0x198c <UART_Show_User_List+0x5c>
		if(EEPROM_Read_UserID_Exist(id)){
    194a:	81 2f       	mov	r24, r17
    194c:	0e 94 f4 02 	call	0x5e8	; 0x5e8 <EEPROM_Read_UserID_Exist>
    1950:	88 23       	and	r24, r24
    1952:	d9 f0       	breq	.+54     	; 0x198a <UART_Show_User_List+0x5a>
			UART_Send_String_Polling_8("UserID: ");
    1954:	84 ea       	ldi	r24, 0xA4	; 164
    1956:	95 e0       	ldi	r25, 0x05	; 5
    1958:	0e 94 e8 0b 	call	0x17d0	; 0x17d0 <UART_Send_String_Polling_8>
			UART_Send_Byte_Polling_8(id + 48);
    195c:	80 e3       	ldi	r24, 0x30	; 48
    195e:	81 0f       	add	r24, r17
    1960:	0e 94 e4 0b 	call	0x17c8	; 0x17c8 <UART_Send_Byte_Polling_8>
			UART_Send_String_Polling_8(" Username: ");
    1964:	8d e9       	ldi	r24, 0x9D	; 157
    1966:	93 e0       	ldi	r25, 0x03	; 3
    1968:	0e 94 e8 0b 	call	0x17d0	; 0x17d0 <UART_Send_String_Polling_8>
			EEPROM_Read_8Data(id,Usernamex,2);
    196c:	42 e0       	ldi	r20, 0x02	; 2
    196e:	be 01       	movw	r22, r28
    1970:	6f 5f       	subi	r22, 0xFF	; 255
    1972:	7f 4f       	sbci	r23, 0xFF	; 255
    1974:	81 2f       	mov	r24, r17
    1976:	0e 94 dd 02 	call	0x5ba	; 0x5ba <EEPROM_Read_8Data>
			UART_Send_String_Polling_8(Usernamex);
    197a:	ce 01       	movw	r24, r28
    197c:	01 96       	adiw	r24, 0x01	; 1
    197e:	0e 94 e8 0b 	call	0x17d0	; 0x17d0 <UART_Send_String_Polling_8>
			UART_Send_String_Polling_8("\n");
    1982:	84 e3       	ldi	r24, 0x34	; 52
    1984:	95 e0       	ldi	r25, 0x05	; 5
    1986:	0e 94 e8 0b 	call	0x17d0	; 0x17d0 <UART_Send_String_Polling_8>

}

void UART_Show_User_List(){
	sint8 Usernamex[8];
	for(uint8 id = 1;id<MAX_Users_Count;id++){
    198a:	1f 5f       	subi	r17, 0xFF	; 255
    198c:	80 91 a9 03 	lds	r24, 0x03A9	; 0x8003a9 <MAX_Users_Count>
    1990:	18 17       	cp	r17, r24
    1992:	d8 f2       	brcs	.-74     	; 0x194a <UART_Show_User_List+0x1a>
			EEPROM_Read_8Data(id,Usernamex,2);
			UART_Send_String_Polling_8(Usernamex);
			UART_Send_String_Polling_8("\n");
 		}
	}
}
    1994:	28 96       	adiw	r28, 0x08	; 8
    1996:	0f b6       	in	r0, 0x3f	; 63
    1998:	f8 94       	cli
    199a:	de bf       	out	0x3e, r29	; 62
    199c:	0f be       	out	0x3f, r0	; 63
    199e:	cd bf       	out	0x3d, r28	; 61
    19a0:	df 91       	pop	r29
    19a2:	cf 91       	pop	r28
    19a4:	1f 91       	pop	r17
    19a6:	08 95       	ret

000019a8 <UART_Show_Delete_ID>:


void UART_Show_Delete_ID(){
	UART_Send_String_Polling_8("Enter UserID To Delete : \n");
    19a8:	8d ea       	ldi	r24, 0xAD	; 173
    19aa:	95 e0       	ldi	r25, 0x05	; 5
    19ac:	0e 94 e8 0b 	call	0x17d0	; 0x17d0 <UART_Send_String_Polling_8>
    19b0:	08 95       	ret

000019b2 <UART_Show_Request_NewUsername>:
}
void UART_Show_Request_NewUsername(){
	UART_Send_String_Polling_8("Enter The NewUser Username: \n");
    19b2:	88 ec       	ldi	r24, 0xC8	; 200
    19b4:	95 e0       	ldi	r25, 0x05	; 5
    19b6:	0e 94 e8 0b 	call	0x17d0	; 0x17d0 <UART_Send_String_Polling_8>
    19ba:	08 95       	ret

000019bc <UART_Show_Request_NewUserPassword>:
}
void UART_Show_Request_NewUserPassword(){
	UART_Send_String_Polling_8("Enter The NewUser Password: \n");
    19bc:	86 ee       	ldi	r24, 0xE6	; 230
    19be:	95 e0       	ldi	r25, 0x05	; 5
    19c0:	0e 94 e8 0b 	call	0x17d0	; 0x17d0 <UART_Send_String_Polling_8>
    19c4:	08 95       	ret

000019c6 <UART_Logged_OFF>:
}

void UART_Logged_OFF(){
	UART_Send_String_Polling_8("Logged off Success! \n");
    19c6:	84 e0       	ldi	r24, 0x04	; 4
    19c8:	96 e0       	ldi	r25, 0x06	; 6
    19ca:	0e 94 e8 0b 	call	0x17d0	; 0x17d0 <UART_Send_String_Polling_8>
	UART_Show_Request_UserID();
    19ce:	0e 94 1c 0c 	call	0x1838	; 0x1838 <UART_Show_Request_UserID>
    19d2:	08 95       	ret

000019d4 <UART_Choice_Handler_1>:
}
void UART_Choice_Handler_1(uint8 g_choice_1){
	switch(g_choice_1){
    19d4:	90 e0       	ldi	r25, 0x00	; 0
    19d6:	fc 01       	movw	r30, r24
    19d8:	31 97       	sbiw	r30, 0x01	; 1
    19da:	e8 30       	cpi	r30, 0x08	; 8
    19dc:	f1 05       	cpc	r31, r1
    19de:	d8 f4       	brcc	.+54     	; 0x1a16 <UART_Choice_Handler_1+0x42>
    19e0:	ef 5c       	subi	r30, 0xCF	; 207
    19e2:	ff 4f       	sbci	r31, 0xFF	; 255
    19e4:	0c 94 1a 0d 	jmp	0x1a34	; 0x1a34 <__tablejump2__>
		case 1:UART_Show_Control_Leds();break;		//NEXT EXIST
    19e8:	0e 94 4c 0c 	call	0x1898	; 0x1898 <UART_Show_Control_Leds>
    19ec:	08 95       	ret
		case 2:UART_Show_Control_AC();	break;		//NEXT EXIST
    19ee:	0e 94 65 0c 	call	0x18ca	; 0x18ca <UART_Show_Control_AC>
    19f2:	08 95       	ret
		case 3:UART_Show_Control_Door();break;		//NEXT EXIST
    19f4:	0e 94 76 0c 	call	0x18ec	; 0x18ec <UART_Show_Control_Door>
    19f8:	08 95       	ret
		case 4:UART_Show_Control_Dimmer();break;		//NEXT EXIST
    19fa:	0e 94 83 0c 	call	0x1906	; 0x1906 <UART_Show_Control_Dimmer>
    19fe:	08 95       	ret
		case 5:UART_Show_User_List();break;				// NO NEXT
    1a00:	0e 94 98 0c 	call	0x1930	; 0x1930 <UART_Show_User_List>
    1a04:	08 95       	ret
		case 6:UART_Show_Request_NewUsername();break;	//NEXT EXIST
    1a06:	0e 94 d9 0c 	call	0x19b2	; 0x19b2 <UART_Show_Request_NewUsername>
    1a0a:	08 95       	ret
		case 7:UART_Show_Delete_ID();break;				//NEXT EXIST
    1a0c:	0e 94 d4 0c 	call	0x19a8	; 0x19a8 <UART_Show_Delete_ID>
    1a10:	08 95       	ret
		case 8:UART_Logged_OFF();break;					//NO NEXT
    1a12:	0e 94 e3 0c 	call	0x19c6	; 0x19c6 <UART_Logged_OFF>
    1a16:	08 95       	ret

00001a18 <UART_Show_Login_Failed>:
	}
}


void UART_Show_Login_Failed(){
	UART_Send_String_Polling_8("Login Failed, Try again! ");
    1a18:	8a e1       	ldi	r24, 0x1A	; 26
    1a1a:	96 e0       	ldi	r25, 0x06	; 6
    1a1c:	0e 94 e8 0b 	call	0x17d0	; 0x17d0 <UART_Send_String_Polling_8>
	UART_Send_Byte_Polling_8(FailCount + 48);
    1a20:	80 91 52 06 	lds	r24, 0x0652	; 0x800652 <FailCount>
    1a24:	80 5d       	subi	r24, 0xD0	; 208
    1a26:	0e 94 e4 0b 	call	0x17c8	; 0x17c8 <UART_Send_Byte_Polling_8>
	UART_Send_String_Polling_8(" \n");
    1a2a:	83 e3       	ldi	r24, 0x33	; 51
    1a2c:	95 e0       	ldi	r25, 0x05	; 5
    1a2e:	0e 94 e8 0b 	call	0x17d0	; 0x17d0 <UART_Send_String_Polling_8>
    1a32:	08 95       	ret

00001a34 <__tablejump2__>:
    1a34:	ee 0f       	add	r30, r30
    1a36:	ff 1f       	adc	r31, r31
    1a38:	05 90       	lpm	r0, Z+
    1a3a:	f4 91       	lpm	r31, Z
    1a3c:	e0 2d       	mov	r30, r0
    1a3e:	09 94       	ijmp

00001a40 <atoi>:
    1a40:	fc 01       	movw	r30, r24
    1a42:	88 27       	eor	r24, r24
    1a44:	99 27       	eor	r25, r25
    1a46:	e8 94       	clt
    1a48:	21 91       	ld	r18, Z+
    1a4a:	20 32       	cpi	r18, 0x20	; 32
    1a4c:	e9 f3       	breq	.-6      	; 0x1a48 <atoi+0x8>
    1a4e:	29 30       	cpi	r18, 0x09	; 9
    1a50:	10 f0       	brcs	.+4      	; 0x1a56 <atoi+0x16>
    1a52:	2e 30       	cpi	r18, 0x0E	; 14
    1a54:	c8 f3       	brcs	.-14     	; 0x1a48 <atoi+0x8>
    1a56:	2b 32       	cpi	r18, 0x2B	; 43
    1a58:	41 f0       	breq	.+16     	; 0x1a6a <atoi+0x2a>
    1a5a:	2d 32       	cpi	r18, 0x2D	; 45
    1a5c:	39 f4       	brne	.+14     	; 0x1a6c <atoi+0x2c>
    1a5e:	68 94       	set
    1a60:	04 c0       	rjmp	.+8      	; 0x1a6a <atoi+0x2a>
    1a62:	0e 94 4e 0d 	call	0x1a9c	; 0x1a9c <__mulhi_const_10>
    1a66:	82 0f       	add	r24, r18
    1a68:	91 1d       	adc	r25, r1
    1a6a:	21 91       	ld	r18, Z+
    1a6c:	20 53       	subi	r18, 0x30	; 48
    1a6e:	2a 30       	cpi	r18, 0x0A	; 10
    1a70:	c0 f3       	brcs	.-16     	; 0x1a62 <atoi+0x22>
    1a72:	1e f4       	brtc	.+6      	; 0x1a7a <atoi+0x3a>
    1a74:	90 95       	com	r25
    1a76:	81 95       	neg	r24
    1a78:	9f 4f       	sbci	r25, 0xFF	; 255
    1a7a:	08 95       	ret

00001a7c <strcmp>:
    1a7c:	fb 01       	movw	r30, r22
    1a7e:	dc 01       	movw	r26, r24
    1a80:	8d 91       	ld	r24, X+
    1a82:	01 90       	ld	r0, Z+
    1a84:	80 19       	sub	r24, r0
    1a86:	01 10       	cpse	r0, r1
    1a88:	d9 f3       	breq	.-10     	; 0x1a80 <strcmp+0x4>
    1a8a:	99 0b       	sbc	r25, r25
    1a8c:	08 95       	ret

00001a8e <strcpy>:
    1a8e:	fb 01       	movw	r30, r22
    1a90:	dc 01       	movw	r26, r24
    1a92:	01 90       	ld	r0, Z+
    1a94:	0d 92       	st	X+, r0
    1a96:	00 20       	and	r0, r0
    1a98:	e1 f7       	brne	.-8      	; 0x1a92 <strcpy+0x4>
    1a9a:	08 95       	ret

00001a9c <__mulhi_const_10>:
    1a9c:	7a e0       	ldi	r23, 0x0A	; 10
    1a9e:	97 9f       	mul	r25, r23
    1aa0:	90 2d       	mov	r25, r0
    1aa2:	87 9f       	mul	r24, r23
    1aa4:	80 2d       	mov	r24, r0
    1aa6:	91 0d       	add	r25, r1
    1aa8:	11 24       	eor	r1, r1
    1aaa:	08 95       	ret

00001aac <_exit>:
    1aac:	f8 94       	cli

00001aae <__stop_program>:
    1aae:	ff cf       	rjmp	.-2      	; 0x1aae <__stop_program>
