
Smart_Home_D66.elf:     file format elf32-avr

Sections:
Idx Name          Size      VMA       LMA       File off  Algn
  0 .text         00001e16  00000000  00000000  00000094  2**1
                  CONTENTS, ALLOC, LOAD, READONLY, CODE
  1 .data         000005ea  00800060  00001e16  00001eaa  2**0
                  CONTENTS, ALLOC, LOAD, DATA
  2 .bss          0000006e  0080064a  0080064a  00002494  2**0
                  ALLOC
  3 .comment      00000030  00000000  00000000  00002494  2**0
                  CONTENTS, READONLY
  4 .note.gnu.avr.deviceinfo 0000003c  00000000  00000000  000024c4  2**2
                  CONTENTS, READONLY
  5 .debug_aranges 00000740  00000000  00000000  00002500  2**0
                  CONTENTS, READONLY, DEBUGGING
  6 .debug_info   00005ede  00000000  00000000  00002c40  2**0
                  CONTENTS, READONLY, DEBUGGING
  7 .debug_abbrev 000015ee  00000000  00000000  00008b1e  2**0
                  CONTENTS, READONLY, DEBUGGING
  8 .debug_line   0000341b  00000000  00000000  0000a10c  2**0
                  CONTENTS, READONLY, DEBUGGING
  9 .debug_frame  00000f78  00000000  00000000  0000d528  2**2
                  CONTENTS, READONLY, DEBUGGING
 10 .debug_str    000018c2  00000000  00000000  0000e4a0  2**0
                  CONTENTS, READONLY, DEBUGGING
 11 .debug_loc    000023c6  00000000  00000000  0000fd62  2**0
                  CONTENTS, READONLY, DEBUGGING
 12 .debug_ranges 00000658  00000000  00000000  00012128  2**0
                  CONTENTS, READONLY, DEBUGGING

Disassembly of section .text:

00000000 <__vectors>:
       0:	0c 94 47 00 	jmp	0x8e	; 0x8e <__ctors_end>
       4:	0c 94 64 00 	jmp	0xc8	; 0xc8 <__bad_interrupt>
       8:	0c 94 64 00 	jmp	0xc8	; 0xc8 <__bad_interrupt>
       c:	0c 94 64 00 	jmp	0xc8	; 0xc8 <__bad_interrupt>
      10:	0c 94 64 00 	jmp	0xc8	; 0xc8 <__bad_interrupt>
      14:	0c 94 64 00 	jmp	0xc8	; 0xc8 <__bad_interrupt>
      18:	0c 94 64 00 	jmp	0xc8	; 0xc8 <__bad_interrupt>
      1c:	0c 94 8f 00 	jmp	0x11e	; 0x11e <__vector_7>
      20:	0c 94 64 00 	jmp	0xc8	; 0xc8 <__bad_interrupt>
      24:	0c 94 64 00 	jmp	0xc8	; 0xc8 <__bad_interrupt>
      28:	0c 94 64 00 	jmp	0xc8	; 0xc8 <__bad_interrupt>
      2c:	0c 94 33 05 	jmp	0xa66	; 0xa66 <__vector_11>
      30:	0c 94 64 00 	jmp	0xc8	; 0xc8 <__bad_interrupt>
      34:	0c 94 66 00 	jmp	0xcc	; 0xcc <__vector_13>
      38:	0c 94 64 00 	jmp	0xc8	; 0xc8 <__bad_interrupt>
      3c:	0c 94 64 00 	jmp	0xc8	; 0xc8 <__bad_interrupt>
      40:	0c 94 64 00 	jmp	0xc8	; 0xc8 <__bad_interrupt>
      44:	0c 94 64 00 	jmp	0xc8	; 0xc8 <__bad_interrupt>
      48:	0c 94 64 00 	jmp	0xc8	; 0xc8 <__bad_interrupt>
      4c:	0c 94 64 00 	jmp	0xc8	; 0xc8 <__bad_interrupt>
      50:	0c 94 64 00 	jmp	0xc8	; 0xc8 <__bad_interrupt>
      54:	74 02       	muls	r23, r20
      56:	79 02       	muls	r23, r25
      58:	7e 02       	muls	r23, r30
      5a:	83 02       	muls	r24, r19
      5c:	8c 02       	muls	r24, r28
      5e:	95 02       	muls	r25, r21
      60:	9e 02       	muls	r25, r30
      62:	a7 02       	muls	r26, r23
      64:	b0 02       	muls	r27, r16
      66:	b9 02       	muls	r27, r25
      68:	d0 02       	muls	r29, r16
      6a:	df 02       	muls	r29, r31
      6c:	e8 02       	muls	r30, r24
      6e:	20 03       	mulsu	r18, r16
      70:	29 03       	fmul	r18, r17
      72:	61 03       	mulsu	r22, r17
      74:	ab 03       	fmulsu	r18, r19
      76:	bd 03       	fmulsu	r19, r21
      78:	dc 03       	fmulsu	r21, r20
      7a:	fd 03       	fmulsu	r23, r21
      7c:	1c 04       	cpc	r1, r12
      7e:	72 0e       	add	r7, r18
      80:	75 0e       	add	r7, r21
      82:	78 0e       	add	r7, r24
      84:	7b 0e       	add	r7, r27
      86:	7e 0e       	add	r7, r30
      88:	81 0e       	add	r8, r17
      8a:	84 0e       	add	r8, r20
      8c:	87 0e       	add	r8, r23

0000008e <__ctors_end>:
      8e:	11 24       	eor	r1, r1
      90:	1f be       	out	0x3f, r1	; 63
      92:	cf e5       	ldi	r28, 0x5F	; 95
      94:	d8 e0       	ldi	r29, 0x08	; 8
      96:	de bf       	out	0x3e, r29	; 62
      98:	cd bf       	out	0x3d, r28	; 61

0000009a <__do_copy_data>:
      9a:	16 e0       	ldi	r17, 0x06	; 6
      9c:	a0 e6       	ldi	r26, 0x60	; 96
      9e:	b0 e0       	ldi	r27, 0x00	; 0
      a0:	e6 e1       	ldi	r30, 0x16	; 22
      a2:	fe e1       	ldi	r31, 0x1E	; 30
      a4:	02 c0       	rjmp	.+4      	; 0xaa <__do_copy_data+0x10>
      a6:	05 90       	lpm	r0, Z+
      a8:	0d 92       	st	X+, r0
      aa:	aa 34       	cpi	r26, 0x4A	; 74
      ac:	b1 07       	cpc	r27, r17
      ae:	d9 f7       	brne	.-10     	; 0xa6 <__do_copy_data+0xc>

000000b0 <__do_clear_bss>:
      b0:	26 e0       	ldi	r18, 0x06	; 6
      b2:	aa e4       	ldi	r26, 0x4A	; 74
      b4:	b6 e0       	ldi	r27, 0x06	; 6
      b6:	01 c0       	rjmp	.+2      	; 0xba <.do_clear_bss_start>

000000b8 <.do_clear_bss_loop>:
      b8:	1d 92       	st	X+, r1

000000ba <.do_clear_bss_start>:
      ba:	a8 3b       	cpi	r26, 0xB8	; 184
      bc:	b2 07       	cpc	r27, r18
      be:	e1 f7       	brne	.-8      	; 0xb8 <.do_clear_bss_loop>
      c0:	0e 94 66 0b 	call	0x16cc	; 0x16cc <main>
      c4:	0c 94 09 0f 	jmp	0x1e12	; 0x1e12 <_exit>

000000c8 <__bad_interrupt>:
      c8:	0c 94 00 00 	jmp	0	; 0x0 <__vectors>

000000cc <__vector_13>:
	EEPROM_Write_String(51,User2_password);
	EEPROM_Write_String(60,User2_username);
	for(int i =1; i<1000;i++){
		EEPROM_Write_Byte(70+i,0);
	}
}
      cc:	1f 92       	push	r1
      ce:	0f 92       	push	r0
      d0:	0f b6       	in	r0, 0x3f	; 63
      d2:	0f 92       	push	r0
      d4:	11 24       	eor	r1, r1
      d6:	2f 93       	push	r18
      d8:	3f 93       	push	r19
      da:	4f 93       	push	r20
      dc:	5f 93       	push	r21
      de:	6f 93       	push	r22
      e0:	7f 93       	push	r23
      e2:	8f 93       	push	r24
      e4:	9f 93       	push	r25
      e6:	af 93       	push	r26
      e8:	bf 93       	push	r27
      ea:	ef 93       	push	r30
      ec:	ff 93       	push	r31
      ee:	87 e8       	ldi	r24, 0x87	; 135
      f0:	96 e0       	ldi	r25, 0x06	; 6
      f2:	0e 94 7d 0d 	call	0x1afa	; 0x1afa <UART_Recieve_String_8>
      f6:	81 e0       	ldi	r24, 0x01	; 1
      f8:	80 93 54 06 	sts	0x0654, r24	; 0x800654 <UART_Received_Flag>
      fc:	ff 91       	pop	r31
      fe:	ef 91       	pop	r30
     100:	bf 91       	pop	r27
     102:	af 91       	pop	r26
     104:	9f 91       	pop	r25
     106:	8f 91       	pop	r24
     108:	7f 91       	pop	r23
     10a:	6f 91       	pop	r22
     10c:	5f 91       	pop	r21
     10e:	4f 91       	pop	r20
     110:	3f 91       	pop	r19
     112:	2f 91       	pop	r18
     114:	0f 90       	pop	r0
     116:	0f be       	out	0x3f, r0	; 63
     118:	0f 90       	pop	r0
     11a:	1f 90       	pop	r1
     11c:	18 95       	reti

0000011e <__vector_7>:
     11e:	1f 92       	push	r1
     120:	0f 92       	push	r0
     122:	0f b6       	in	r0, 0x3f	; 63
     124:	0f 92       	push	r0
     126:	11 24       	eor	r1, r1
     128:	2f 93       	push	r18
     12a:	3f 93       	push	r19
     12c:	4f 93       	push	r20
     12e:	5f 93       	push	r21
     130:	6f 93       	push	r22
     132:	7f 93       	push	r23
     134:	8f 93       	push	r24
     136:	9f 93       	push	r25
     138:	af 93       	push	r26
     13a:	bf 93       	push	r27
     13c:	ef 93       	push	r30
     13e:	ff 93       	push	r31
     140:	80 91 4a 06 	lds	r24, 0x064A	; 0x80064a <__data_end>
     144:	81 30       	cpi	r24, 0x01	; 1
     146:	89 f0       	breq	.+34     	; 0x16a <__vector_7+0x4c>
     148:	28 f0       	brcs	.+10     	; 0x154 <__vector_7+0x36>
     14a:	85 30       	cpi	r24, 0x05	; 5
     14c:	e9 f0       	breq	.+58     	; 0x188 <__vector_7+0x6a>
     14e:	88 32       	cpi	r24, 0x28	; 40
     150:	51 f1       	breq	.+84     	; 0x1a6 <__vector_7+0x88>
     152:	2c c0       	rjmp	.+88     	; 0x1ac <__vector_7+0x8e>
     154:	41 e0       	ldi	r20, 0x01	; 1
     156:	67 e0       	ldi	r22, 0x07	; 7
     158:	83 e0       	ldi	r24, 0x03	; 3
     15a:	0e 94 10 0c 	call	0x1820	; 0x1820 <DIO_Set_Pin_Output>
     15e:	80 91 4a 06 	lds	r24, 0x064A	; 0x80064a <__data_end>
     162:	8f 5f       	subi	r24, 0xFF	; 255
     164:	80 93 4a 06 	sts	0x064A, r24	; 0x80064a <__data_end>
     168:	24 c0       	rjmp	.+72     	; 0x1b2 <__vector_7+0x94>
     16a:	80 91 57 06 	lds	r24, 0x0657	; 0x800657 <door_state>
     16e:	81 11       	cpse	r24, r1
     170:	05 c0       	rjmp	.+10     	; 0x17c <__vector_7+0x5e>
     172:	40 e0       	ldi	r20, 0x00	; 0
     174:	67 e0       	ldi	r22, 0x07	; 7
     176:	83 e0       	ldi	r24, 0x03	; 3
     178:	0e 94 10 0c 	call	0x1820	; 0x1820 <DIO_Set_Pin_Output>
     17c:	80 91 4a 06 	lds	r24, 0x064A	; 0x80064a <__data_end>
     180:	8f 5f       	subi	r24, 0xFF	; 255
     182:	80 93 4a 06 	sts	0x064A, r24	; 0x80064a <__data_end>
     186:	15 c0       	rjmp	.+42     	; 0x1b2 <__vector_7+0x94>
     188:	80 91 57 06 	lds	r24, 0x0657	; 0x800657 <door_state>
     18c:	81 30       	cpi	r24, 0x01	; 1
     18e:	29 f4       	brne	.+10     	; 0x19a <__vector_7+0x7c>
     190:	40 e0       	ldi	r20, 0x00	; 0
     192:	67 e0       	ldi	r22, 0x07	; 7
     194:	83 e0       	ldi	r24, 0x03	; 3
     196:	0e 94 10 0c 	call	0x1820	; 0x1820 <DIO_Set_Pin_Output>
     19a:	80 91 4a 06 	lds	r24, 0x064A	; 0x80064a <__data_end>
     19e:	8f 5f       	subi	r24, 0xFF	; 255
     1a0:	80 93 4a 06 	sts	0x064A, r24	; 0x80064a <__data_end>
     1a4:	06 c0       	rjmp	.+12     	; 0x1b2 <__vector_7+0x94>
     1a6:	10 92 4a 06 	sts	0x064A, r1	; 0x80064a <__data_end>
     1aa:	03 c0       	rjmp	.+6      	; 0x1b2 <__vector_7+0x94>
     1ac:	8f 5f       	subi	r24, 0xFF	; 255
     1ae:	80 93 4a 06 	sts	0x064A, r24	; 0x80064a <__data_end>
     1b2:	ff 91       	pop	r31
     1b4:	ef 91       	pop	r30
     1b6:	bf 91       	pop	r27
     1b8:	af 91       	pop	r26
     1ba:	9f 91       	pop	r25
     1bc:	8f 91       	pop	r24
     1be:	7f 91       	pop	r23
     1c0:	6f 91       	pop	r22
     1c2:	5f 91       	pop	r21
     1c4:	4f 91       	pop	r20
     1c6:	3f 91       	pop	r19
     1c8:	2f 91       	pop	r18
     1ca:	0f 90       	pop	r0
     1cc:	0f be       	out	0x3f, r0	; 63
     1ce:	0f 90       	pop	r0
     1d0:	1f 90       	pop	r1
     1d2:	18 95       	reti

000001d4 <Smart_Initialization>:
     1d4:	0e 94 da 0a 	call	0x15b4	; 0x15b4 <LED_Init_All>
     1d8:	0e 94 ff 0a 	call	0x15fe	; 0x15fe <LED_1_Off>
     1dc:	0e 94 05 0b 	call	0x160a	; 0x160a <LED_2_Off>
     1e0:	0e 94 0b 0b 	call	0x1616	; 0x1616 <LED_3_Off>
     1e4:	0e 94 11 0b 	call	0x1622	; 0x1622 <LED_4_Off>
     1e8:	0e 94 f9 0a 	call	0x15f2	; 0x15f2 <LED_0_Off>
     1ec:	0e 94 7a 0b 	call	0x16f4	; 0x16f4 <ADC_Init>
     1f0:	0e 94 71 05 	call	0xae2	; 0xae2 <Dimmer_Init>
     1f4:	0e 94 d2 05 	call	0xba4	; 0xba4 <Dimmer_Off>
     1f8:	0e 94 69 07 	call	0xed2	; 0xed2 <KEYPAD_Initialization>
     1fc:	0e 94 59 09 	call	0x12b2	; 0x12b2 <LCD_Init>
     200:	0e 94 d7 04 	call	0x9ae	; 0x9ae <AC_Initialization>
     204:	0e 94 00 06 	call	0xc00	; 0xc00 <Servo_Init>
     208:	0e 94 17 06 	call	0xc2e	; 0xc2e <EEPROM_Init>
     20c:	0e 94 3d 0d 	call	0x1a7a	; 0x1a7a <UART_Init>
     210:	0e 94 39 0d 	call	0x1a72	; 0x1a72 <UART_Enable_RX_Interrupt>
     214:	0e 94 e4 0c 	call	0x19c8	; 0x19c8 <GIE_Enable>
     218:	08 95       	ret

0000021a <ADC_Temperature_Update>:
     21a:	81 e0       	ldi	r24, 0x01	; 1
     21c:	0e 94 8d 0b 	call	0x171a	; 0x171a <ADC_Convert_8bit>
     220:	22 e3       	ldi	r18, 0x32	; 50
     222:	82 9f       	mul	r24, r18
     224:	c0 01       	movw	r24, r0
     226:	11 24       	eor	r1, r1
     228:	90 93 60 00 	sts	0x0060, r25	; 0x800060 <__DATA_REGION_ORIGIN__>
     22c:	08 95       	ret

0000022e <UART_Process>:
     22e:	80 91 54 06 	lds	r24, 0x0654	; 0x800654 <UART_Received_Flag>
     232:	81 30       	cpi	r24, 0x01	; 1
     234:	09 f0       	breq	.+2      	; 0x238 <UART_Process+0xa>
     236:	47 c1       	rjmp	.+654    	; 0x4c6 <__EEPROM_REGION_LENGTH__+0xc6>
     238:	10 92 54 06 	sts	0x0654, r1	; 0x800654 <UART_Received_Flag>
     23c:	80 91 62 00 	lds	r24, 0x0062	; 0x800062 <UART_global_Flag>
     240:	83 30       	cpi	r24, 0x03	; 3
     242:	29 f1       	breq	.+74     	; 0x28e <UART_Process+0x60>
     244:	28 f4       	brcc	.+10     	; 0x250 <UART_Process+0x22>
     246:	81 30       	cpi	r24, 0x01	; 1
     248:	61 f0       	breq	.+24     	; 0x262 <UART_Process+0x34>
     24a:	82 30       	cpi	r24, 0x02	; 2
     24c:	91 f0       	breq	.+36     	; 0x272 <UART_Process+0x44>
     24e:	08 95       	ret
     250:	85 30       	cpi	r24, 0x05	; 5
     252:	09 f4       	brne	.+2      	; 0x256 <UART_Process+0x28>
     254:	93 c0       	rjmp	.+294    	; 0x37c <UART_Process+0x14e>
     256:	08 f4       	brcc	.+2      	; 0x25a <UART_Process+0x2c>
     258:	69 c0       	rjmp	.+210    	; 0x32c <UART_Process+0xfe>
     25a:	86 30       	cpi	r24, 0x06	; 6
     25c:	09 f4       	brne	.+2      	; 0x260 <UART_Process+0x32>
     25e:	01 c1       	rjmp	.+514    	; 0x462 <__EEPROM_REGION_LENGTH__+0x62>
     260:	08 95       	ret
     262:	0e 94 9a 0d 	call	0x1b34	; 0x1b34 <UART_Show_Request_UserID>
     266:	80 91 62 00 	lds	r24, 0x0062	; 0x800062 <UART_global_Flag>
     26a:	8f 5f       	subi	r24, 0xFF	; 255
     26c:	80 93 62 00 	sts	0x0062, r24	; 0x800062 <UART_global_Flag>
     270:	08 95       	ret
     272:	67 e8       	ldi	r22, 0x87	; 135
     274:	76 e0       	ldi	r23, 0x06	; 6
     276:	80 ea       	ldi	r24, 0xA0	; 160
     278:	96 e0       	ldi	r25, 0x06	; 6
     27a:	0e 94 c5 0e 	call	0x1d8a	; 0x1d8a <strcpy>
     27e:	0e 94 9f 0d 	call	0x1b3e	; 0x1b3e <UART_Show_Request_Password>
     282:	80 91 62 00 	lds	r24, 0x0062	; 0x800062 <UART_global_Flag>
     286:	8f 5f       	subi	r24, 0xFF	; 255
     288:	80 93 62 00 	sts	0x0062, r24	; 0x800062 <UART_global_Flag>
     28c:	08 95       	ret
     28e:	67 e8       	ldi	r22, 0x87	; 135
     290:	76 e0       	ldi	r23, 0x06	; 6
     292:	83 e6       	ldi	r24, 0x63	; 99
     294:	96 e0       	ldi	r25, 0x06	; 6
     296:	0e 94 c5 0e 	call	0x1d8a	; 0x1d8a <strcpy>
     29a:	80 ea       	ldi	r24, 0xA0	; 160
     29c:	96 e0       	ldi	r25, 0x06	; 6
     29e:	0e 94 9e 0e 	call	0x1d3c	; 0x1d3c <atoi>
     2a2:	80 93 7d 06 	sts	0x067D, r24	; 0x80067d <User_ID>
     2a6:	0e 94 18 07 	call	0xe30	; 0xe30 <EEPROM_Read_UserID_Exist>
     2aa:	88 23       	and	r24, r24
     2ac:	71 f0       	breq	.+28     	; 0x2ca <UART_Process+0x9c>
     2ae:	42 e0       	ldi	r20, 0x02	; 2
     2b0:	6e e7       	ldi	r22, 0x7E	; 126
     2b2:	76 e0       	ldi	r23, 0x06	; 6
     2b4:	80 91 7d 06 	lds	r24, 0x067D	; 0x80067d <User_ID>
     2b8:	0e 94 01 07 	call	0xe02	; 0xe02 <EEPROM_Read_8Data>
     2bc:	41 e0       	ldi	r20, 0x01	; 1
     2be:	6a e5       	ldi	r22, 0x5A	; 90
     2c0:	76 e0       	ldi	r23, 0x06	; 6
     2c2:	80 91 7d 06 	lds	r24, 0x067D	; 0x80067d <User_ID>
     2c6:	0e 94 01 07 	call	0xe02	; 0xe02 <EEPROM_Read_8Data>
     2ca:	63 e6       	ldi	r22, 0x63	; 99
     2cc:	76 e0       	ldi	r23, 0x06	; 6
     2ce:	8a e5       	ldi	r24, 0x5A	; 90
     2d0:	96 e0       	ldi	r25, 0x06	; 6
     2d2:	0e 94 bc 0e 	call	0x1d78	; 0x1d78 <strcmp>
     2d6:	89 2b       	or	r24, r25
     2d8:	a1 f4       	brne	.+40     	; 0x302 <UART_Process+0xd4>
     2da:	87 e6       	ldi	r24, 0x67	; 103
     2dc:	90 e0       	ldi	r25, 0x00	; 0
     2de:	0e 94 66 0d 	call	0x1acc	; 0x1acc <UART_Send_String_Polling_8>
     2e2:	8e e7       	ldi	r24, 0x7E	; 126
     2e4:	96 e0       	ldi	r25, 0x06	; 6
     2e6:	0e 94 66 0d 	call	0x1acc	; 0x1acc <UART_Send_String_Polling_8>
     2ea:	89 e4       	ldi	r24, 0x49	; 73
     2ec:	95 e0       	ldi	r25, 0x05	; 5
     2ee:	0e 94 66 0d 	call	0x1acc	; 0x1acc <UART_Send_String_Polling_8>
     2f2:	0e 94 a9 0d 	call	0x1b52	; 0x1b52 <UART_Show_MainMenu>
     2f6:	80 91 62 00 	lds	r24, 0x0062	; 0x800062 <UART_global_Flag>
     2fa:	8f 5f       	subi	r24, 0xFF	; 255
     2fc:	80 93 62 00 	sts	0x0062, r24	; 0x800062 <UART_global_Flag>
     300:	08 95       	ret
     302:	80 91 55 06 	lds	r24, 0x0655	; 0x800655 <FailCount>
     306:	8f 5f       	subi	r24, 0xFF	; 255
     308:	80 93 55 06 	sts	0x0655, r24	; 0x800655 <FailCount>
     30c:	90 91 66 00 	lds	r25, 0x0066	; 0x800066 <Max_Failure_Login_Count>
     310:	89 17       	cp	r24, r25
     312:	30 f0       	brcs	.+12     	; 0x320 <UART_Process+0xf2>
     314:	80 e1       	ldi	r24, 0x10	; 16
     316:	92 e0       	ldi	r25, 0x02	; 2
     318:	0e 94 66 0d 	call	0x1acc	; 0x1acc <UART_Send_String_Polling_8>
     31c:	0e 94 2e 05 	call	0xa5c	; 0xa5c <BUZZER_ALARM_TILL_RESET>
     320:	0e 94 8a 0e 	call	0x1d14	; 0x1d14 <UART_Show_Login_Failed>
     324:	81 e0       	ldi	r24, 0x01	; 1
     326:	80 93 62 00 	sts	0x0062, r24	; 0x800062 <UART_global_Flag>
     32a:	08 95       	ret
     32c:	87 e8       	ldi	r24, 0x87	; 135
     32e:	96 e0       	ldi	r25, 0x06	; 6
     330:	0e 94 9e 0e 	call	0x1d3c	; 0x1d3c <atoi>
     334:	80 93 6b 06 	sts	0x066B, r24	; 0x80066b <g_choice_1>
     338:	9a ef       	ldi	r25, 0xFA	; 250
     33a:	98 0f       	add	r25, r24
     33c:	93 30       	cpi	r25, 0x03	; 3
     33e:	10 f0       	brcs	.+4      	; 0x344 <UART_Process+0x116>
     340:	83 30       	cpi	r24, 0x03	; 3
     342:	49 f4       	brne	.+18     	; 0x356 <UART_Process+0x128>
     344:	90 91 7d 06 	lds	r25, 0x067D	; 0x80067d <User_ID>
     348:	93 36       	cpi	r25, 0x63	; 99
     34a:	29 f0       	breq	.+10     	; 0x356 <UART_Process+0x128>
     34c:	86 e7       	ldi	r24, 0x76	; 118
     34e:	90 e0       	ldi	r25, 0x00	; 0
     350:	0e 94 66 0d 	call	0x1acc	; 0x1acc <UART_Send_String_Polling_8>
     354:	08 95       	ret
     356:	0e 94 68 0e 	call	0x1cd0	; 0x1cd0 <UART_Choice_Handler_1>
     35a:	80 91 6b 06 	lds	r24, 0x066B	; 0x80066b <g_choice_1>
     35e:	85 30       	cpi	r24, 0x05	; 5
     360:	31 f0       	breq	.+12     	; 0x36e <UART_Process+0x140>
     362:	80 91 62 00 	lds	r24, 0x0062	; 0x800062 <UART_global_Flag>
     366:	8f 5f       	subi	r24, 0xFF	; 255
     368:	80 93 62 00 	sts	0x0062, r24	; 0x800062 <UART_global_Flag>
     36c:	08 95       	ret
     36e:	88 30       	cpi	r24, 0x08	; 8
     370:	09 f0       	breq	.+2      	; 0x374 <UART_Process+0x146>
     372:	a9 c0       	rjmp	.+338    	; 0x4c6 <__EEPROM_REGION_LENGTH__+0xc6>
     374:	82 e0       	ldi	r24, 0x02	; 2
     376:	80 93 62 00 	sts	0x0062, r24	; 0x800062 <UART_global_Flag>
     37a:	08 95       	ret
     37c:	87 e8       	ldi	r24, 0x87	; 135
     37e:	96 e0       	ldi	r25, 0x06	; 6
     380:	0e 94 9e 0e 	call	0x1d3c	; 0x1d3c <atoi>
     384:	80 93 8f 06 	sts	0x068F, r24	; 0x80068f <g_choice_2>
     388:	90 91 6b 06 	lds	r25, 0x066B	; 0x80066b <g_choice_1>
     38c:	2a ef       	ldi	r18, 0xFA	; 250
     38e:	29 0f       	add	r18, r25
     390:	22 30       	cpi	r18, 0x02	; 2
     392:	98 f0       	brcs	.+38     	; 0x3ba <UART_Process+0x18c>
     394:	89 30       	cpi	r24, 0x09	; 9
     396:	38 f0       	brcs	.+14     	; 0x3a6 <UART_Process+0x178>
     398:	0e 94 a4 0d 	call	0x1b48	; 0x1b48 <UART_Show_Invalid>
     39c:	80 91 6b 06 	lds	r24, 0x066B	; 0x80066b <g_choice_1>
     3a0:	0e 94 68 0e 	call	0x1cd0	; 0x1cd0 <UART_Choice_Handler_1>
     3a4:	08 95       	ret
     3a6:	81 11       	cpse	r24, r1
     3a8:	08 c0       	rjmp	.+16     	; 0x3ba <UART_Process+0x18c>
     3aa:	0e 94 a9 0d 	call	0x1b52	; 0x1b52 <UART_Show_MainMenu>
     3ae:	80 91 62 00 	lds	r24, 0x0062	; 0x800062 <UART_global_Flag>
     3b2:	81 50       	subi	r24, 0x01	; 1
     3b4:	80 93 62 00 	sts	0x0062, r24	; 0x800062 <UART_global_Flag>
     3b8:	08 95       	ret
     3ba:	93 30       	cpi	r25, 0x03	; 3
     3bc:	f1 f0       	breq	.+60     	; 0x3fa <UART_Process+0x1cc>
     3be:	28 f4       	brcc	.+10     	; 0x3ca <UART_Process+0x19c>
     3c0:	91 30       	cpi	r25, 0x01	; 1
     3c2:	59 f0       	breq	.+22     	; 0x3da <UART_Process+0x1ac>
     3c4:	92 30       	cpi	r25, 0x02	; 2
     3c6:	89 f0       	breq	.+34     	; 0x3ea <UART_Process+0x1bc>
     3c8:	08 95       	ret
     3ca:	96 30       	cpi	r25, 0x06	; 6
     3cc:	39 f1       	breq	.+78     	; 0x41c <__EEPROM_REGION_LENGTH__+0x1c>
     3ce:	97 30       	cpi	r25, 0x07	; 7
     3d0:	99 f1       	breq	.+102    	; 0x438 <__EEPROM_REGION_LENGTH__+0x38>
     3d2:	94 30       	cpi	r25, 0x04	; 4
     3d4:	09 f0       	breq	.+2      	; 0x3d8 <UART_Process+0x1aa>
     3d6:	77 c0       	rjmp	.+238    	; 0x4c6 <__EEPROM_REGION_LENGTH__+0xc6>
     3d8:	19 c0       	rjmp	.+50     	; 0x40c <__EEPROM_REGION_LENGTH__+0xc>
     3da:	86 30       	cpi	r24, 0x06	; 6
     3dc:	18 f4       	brcc	.+6      	; 0x3e4 <UART_Process+0x1b6>
     3de:	0e 94 35 0b 	call	0x166a	; 0x166a <LED_Feedback>
     3e2:	08 95       	ret
     3e4:	0e 94 a4 0d 	call	0x1b48	; 0x1b48 <UART_Show_Invalid>
     3e8:	08 95       	ret
     3ea:	84 30       	cpi	r24, 0x04	; 4
     3ec:	18 f4       	brcc	.+6      	; 0x3f4 <UART_Process+0x1c6>
     3ee:	0e 94 ee 04 	call	0x9dc	; 0x9dc <AC_Feedback>
     3f2:	08 95       	ret
     3f4:	0e 94 a4 0d 	call	0x1b48	; 0x1b48 <UART_Show_Invalid>
     3f8:	08 95       	ret
     3fa:	83 30       	cpi	r24, 0x03	; 3
     3fc:	20 f4       	brcc	.+8      	; 0x406 <__EEPROM_REGION_LENGTH__+0x6>
     3fe:	90 e0       	ldi	r25, 0x00	; 0
     400:	0e 94 d5 05 	call	0xbaa	; 0xbaa <Door_Feedback>
     404:	08 95       	ret
     406:	0e 94 a4 0d 	call	0x1b48	; 0x1b48 <UART_Show_Invalid>
     40a:	08 95       	ret
     40c:	83 30       	cpi	r24, 0x03	; 3
     40e:	18 f4       	brcc	.+6      	; 0x416 <__EEPROM_REGION_LENGTH__+0x16>
     410:	0e 94 7b 05 	call	0xaf6	; 0xaf6 <Dimmer_Feedback>
     414:	08 95       	ret
     416:	0e 94 a4 0d 	call	0x1b48	; 0x1b48 <UART_Show_Invalid>
     41a:	08 95       	ret
     41c:	67 e8       	ldi	r22, 0x87	; 135
     41e:	76 e0       	ldi	r23, 0x06	; 6
     420:	80 e9       	ldi	r24, 0x90	; 144
     422:	96 e0       	ldi	r25, 0x06	; 6
     424:	0e 94 c5 0e 	call	0x1d8a	; 0x1d8a <strcpy>
     428:	0e 94 5c 0e 	call	0x1cb8	; 0x1cb8 <UART_Show_Request_NewUserPassword>
     42c:	80 91 62 00 	lds	r24, 0x0062	; 0x800062 <UART_global_Flag>
     430:	8f 5f       	subi	r24, 0xFF	; 255
     432:	80 93 62 00 	sts	0x0062, r24	; 0x800062 <UART_global_Flag>
     436:	08 95       	ret
     438:	0e 94 18 07 	call	0xe30	; 0xe30 <EEPROM_Read_UserID_Exist>
     43c:	88 23       	and	r24, r24
     43e:	49 f0       	breq	.+18     	; 0x452 <__EEPROM_REGION_LENGTH__+0x52>
     440:	80 91 8f 06 	lds	r24, 0x068F	; 0x80068f <g_choice_2>
     444:	0e 94 25 07 	call	0xe4a	; 0xe4a <EEPROM_Delete_User>
     448:	8a e9       	ldi	r24, 0x9A	; 154
     44a:	90 e0       	ldi	r25, 0x00	; 0
     44c:	0e 94 66 0d 	call	0x1acc	; 0x1acc <UART_Send_String_Polling_8>
     450:	04 c0       	rjmp	.+8      	; 0x45a <__EEPROM_REGION_LENGTH__+0x5a>
     452:	84 eb       	ldi	r24, 0xB4	; 180
     454:	90 e0       	ldi	r25, 0x00	; 0
     456:	0e 94 66 0d 	call	0x1acc	; 0x1acc <UART_Send_String_Polling_8>
     45a:	81 e0       	ldi	r24, 0x01	; 1
     45c:	80 93 62 00 	sts	0x0062, r24	; 0x800062 <UART_global_Flag>
     460:	08 95       	ret
     462:	67 e8       	ldi	r22, 0x87	; 135
     464:	76 e0       	ldi	r23, 0x06	; 6
     466:	88 ea       	ldi	r24, 0xA8	; 168
     468:	96 e0       	ldi	r25, 0x06	; 6
     46a:	0e 94 c5 0e 	call	0x1d8a	; 0x1d8a <strcpy>
     46e:	0e 94 2e 07 	call	0xe5c	; 0xe5c <EEPROM_Find_Empty_ID>
     472:	80 93 86 06 	sts	0x0686, r24	; 0x800686 <New_UserID>
     476:	88 23       	and	r24, r24
     478:	31 f0       	breq	.+12     	; 0x486 <__EEPROM_REGION_LENGTH__+0x86>
     47a:	48 ea       	ldi	r20, 0xA8	; 168
     47c:	56 e0       	ldi	r21, 0x06	; 6
     47e:	60 e9       	ldi	r22, 0x90	; 144
     480:	76 e0       	ldi	r23, 0x06	; 6
     482:	0e 94 47 07 	call	0xe8e	; 0xe8e <EEPROM_Reg_New_User>
     486:	89 ec       	ldi	r24, 0xC9	; 201
     488:	90 e0       	ldi	r25, 0x00	; 0
     48a:	0e 94 66 0d 	call	0x1acc	; 0x1acc <UART_Send_String_Polling_8>
     48e:	87 ee       	ldi	r24, 0xE7	; 231
     490:	90 e0       	ldi	r25, 0x00	; 0
     492:	0e 94 66 0d 	call	0x1acc	; 0x1acc <UART_Send_String_Polling_8>
     496:	80 91 86 06 	lds	r24, 0x0686	; 0x800686 <New_UserID>
     49a:	80 5d       	subi	r24, 0xD0	; 208
     49c:	0e 94 62 0d 	call	0x1ac4	; 0x1ac4 <UART_Send_Byte_Polling_8>
     4a0:	89 e4       	ldi	r24, 0x49	; 73
     4a2:	95 e0       	ldi	r25, 0x05	; 5
     4a4:	0e 94 66 0d 	call	0x1acc	; 0x1acc <UART_Send_String_Polling_8>
     4a8:	85 ef       	ldi	r24, 0xF5	; 245
     4aa:	90 e0       	ldi	r25, 0x00	; 0
     4ac:	0e 94 66 0d 	call	0x1acc	; 0x1acc <UART_Send_String_Polling_8>
     4b0:	80 e9       	ldi	r24, 0x90	; 144
     4b2:	96 e0       	ldi	r25, 0x06	; 6
     4b4:	0e 94 66 0d 	call	0x1acc	; 0x1acc <UART_Send_String_Polling_8>
     4b8:	89 e4       	ldi	r24, 0x49	; 73
     4ba:	95 e0       	ldi	r25, 0x05	; 5
     4bc:	0e 94 66 0d 	call	0x1acc	; 0x1acc <UART_Send_String_Polling_8>
     4c0:	81 e0       	ldi	r24, 0x01	; 1
     4c2:	80 93 62 00 	sts	0x0062, r24	; 0x800062 <UART_global_Flag>
     4c6:	08 95       	ret

000004c8 <LCD_Show>:

void LCD_Show(uint8 stage){
     4c8:	cf 93       	push	r28
     4ca:	c8 2f       	mov	r28, r24
	LCD_Send_Clear_Screen();
     4cc:	0e 94 db 09 	call	0x13b6	; 0x13b6 <LCD_Send_Clear_Screen>
	switch(stage){
     4d0:	8c 2f       	mov	r24, r28
     4d2:	90 e0       	ldi	r25, 0x00	; 0
     4d4:	fc 01       	movw	r30, r24
     4d6:	31 97       	sbiw	r30, 0x01	; 1
     4d8:	ea 30       	cpi	r30, 0x0A	; 10
     4da:	f1 05       	cpc	r31, r1
     4dc:	08 f0       	brcs	.+2      	; 0x4e0 <LCD_Show+0x18>
     4de:	51 c0       	rjmp	.+162    	; 0x582 <LCD_Show+0xba>
     4e0:	e6 5d       	subi	r30, 0xD6	; 214
     4e2:	ff 4f       	sbci	r31, 0xFF	; 255
     4e4:	0c 94 98 0e 	jmp	0x1d30	; 0x1d30 <__tablejump2__>
		case 1:// Get_UserID
			LCD_Send_String("Enter UserID:   ");break;
     4e8:	89 e0       	ldi	r24, 0x09	; 9
     4ea:	91 e0       	ldi	r25, 0x01	; 1
     4ec:	0e 94 c1 0a 	call	0x1582	; 0x1582 <LCD_Send_String>
     4f0:	48 c0       	rjmp	.+144    	; 0x582 <LCD_Show+0xba>
		case 2:// Get_Password
			LCD_Send_String("Enter Password: ");break;
     4f2:	8a e1       	ldi	r24, 0x1A	; 26
     4f4:	91 e0       	ldi	r25, 0x01	; 1
     4f6:	0e 94 c1 0a 	call	0x1582	; 0x1582 <LCD_Send_String>
     4fa:	43 c0       	rjmp	.+134    	; 0x582 <LCD_Show+0xba>
		case 3:// Welcome_User
			LCD_Send_String("Welcome Back!   ");break;
     4fc:	8b e2       	ldi	r24, 0x2B	; 43
     4fe:	91 e0       	ldi	r25, 0x01	; 1
     500:	0e 94 c1 0a 	call	0x1582	; 0x1582 <LCD_Send_String>
     504:	3e c0       	rjmp	.+124    	; 0x582 <LCD_Show+0xba>
		case 4:// Auth Failed
			LCD_Send_String("Auth Failed!    ");
     506:	8c e3       	ldi	r24, 0x3C	; 60
     508:	91 e0       	ldi	r25, 0x01	; 1
     50a:	0e 94 c1 0a 	call	0x1582	; 0x1582 <LCD_Send_String>
			LCD_Send_String("Try Again       ");break;
     50e:	8d e4       	ldi	r24, 0x4D	; 77
     510:	91 e0       	ldi	r25, 0x01	; 1
     512:	0e 94 c1 0a 	call	0x1582	; 0x1582 <LCD_Send_String>
     516:	35 c0       	rjmp	.+106    	; 0x582 <LCD_Show+0xba>
		case 5:// Invalid Selected
			LCD_Send_String("Invalid Selected");
     518:	8e e5       	ldi	r24, 0x5E	; 94
     51a:	91 e0       	ldi	r25, 0x01	; 1
     51c:	0e 94 c1 0a 	call	0x1582	; 0x1582 <LCD_Send_String>
			LCD_Send_String("Try Again       ");break;
     520:	8d e4       	ldi	r24, 0x4D	; 77
     522:	91 e0       	ldi	r25, 0x01	; 1
     524:	0e 94 c1 0a 	call	0x1582	; 0x1582 <LCD_Send_String>
     528:	2c c0       	rjmp	.+88     	; 0x582 <LCD_Show+0xba>
		case 6://Main_Options
			LCD_Send_String("(1)AC  (2)Dimmer");
     52a:	8f e6       	ldi	r24, 0x6F	; 111
     52c:	91 e0       	ldi	r25, 0x01	; 1
     52e:	0e 94 c1 0a 	call	0x1582	; 0x1582 <LCD_Send_String>
			LCD_Send_String("(3)Led (4)Logout");break;
     532:	80 e8       	ldi	r24, 0x80	; 128
     534:	91 e0       	ldi	r25, 0x01	; 1
     536:	0e 94 c1 0a 	call	0x1582	; 0x1582 <LCD_Send_String>
     53a:	23 c0       	rjmp	.+70     	; 0x582 <LCD_Show+0xba>
		case 7://AC_Options
			LCD_Send_String("AC(1)Auto (2)Off");
     53c:	81 e9       	ldi	r24, 0x91	; 145
     53e:	91 e0       	ldi	r25, 0x01	; 1
     540:	0e 94 c1 0a 	call	0x1582	; 0x1582 <LCD_Send_String>
			LCD_Send_String("AC(3)ON  (9)Exit");break;
     544:	82 ea       	ldi	r24, 0xA2	; 162
     546:	91 e0       	ldi	r25, 0x01	; 1
     548:	0e 94 c1 0a 	call	0x1582	; 0x1582 <LCD_Send_String>
     54c:	1a c0       	rjmp	.+52     	; 0x582 <LCD_Show+0xba>
		case 8://Dimmer_Options
			LCD_Send_String("Dimmer Higher(1)");
     54e:	83 eb       	ldi	r24, 0xB3	; 179
     550:	91 e0       	ldi	r25, 0x01	; 1
     552:	0e 94 c1 0a 	call	0x1582	; 0x1582 <LCD_Send_String>
			LCD_Send_String("(0)Lower (9)Exit");break;
     556:	84 ec       	ldi	r24, 0xC4	; 196
     558:	91 e0       	ldi	r25, 0x01	; 1
     55a:	0e 94 c1 0a 	call	0x1582	; 0x1582 <LCD_Send_String>
     55e:	11 c0       	rjmp	.+34     	; 0x582 <LCD_Show+0xba>
		case 9://LED_Options
			LCD_Send_String("Led No.(1)(2)(3)");
     560:	85 ed       	ldi	r24, 0xD5	; 213
     562:	91 e0       	ldi	r25, 0x01	; 1
     564:	0e 94 c1 0a 	call	0x1582	; 0x1582 <LCD_Send_String>
			LCD_Send_String("(4)(5)   (9)Exit");break;
     568:	86 ee       	ldi	r24, 0xE6	; 230
     56a:	91 e0       	ldi	r25, 0x01	; 1
     56c:	0e 94 c1 0a 	call	0x1582	; 0x1582 <LCD_Send_String>
     570:	08 c0       	rjmp	.+16     	; 0x582 <LCD_Show+0xba>
		case 10:// System Locked
			LCD_Send_String("Auth Failed!    ");
     572:	8c e3       	ldi	r24, 0x3C	; 60
     574:	91 e0       	ldi	r25, 0x01	; 1
     576:	0e 94 c1 0a 	call	0x1582	; 0x1582 <LCD_Send_String>
			LCD_Send_String("System Locked   ");break;
     57a:	87 ef       	ldi	r24, 0xF7	; 247
     57c:	91 e0       	ldi	r25, 0x01	; 1
     57e:	0e 94 c1 0a 	call	0x1582	; 0x1582 <LCD_Send_String>
	}
}
     582:	cf 91       	pop	r28
     584:	08 95       	ret

00000586 <LCD_Process>:

void LCD_Process(){
	switch(LCD_g_step){
     586:	20 91 53 06 	lds	r18, 0x0653	; 0x800653 <LCD_g_step>
     58a:	82 2f       	mov	r24, r18
     58c:	90 e0       	ldi	r25, 0x00	; 0
     58e:	8b 30       	cpi	r24, 0x0B	; 11
     590:	91 05       	cpc	r25, r1
     592:	08 f0       	brcs	.+2      	; 0x596 <LCD_Process+0x10>
     594:	7f c1       	rjmp	.+766    	; 0x894 <__stack+0x35>
     596:	fc 01       	movw	r30, r24
     598:	ec 5c       	subi	r30, 0xCC	; 204
     59a:	ff 4f       	sbci	r31, 0xFF	; 255
     59c:	0c 94 98 0e 	jmp	0x1d30	; 0x1d30 <__tablejump2__>
		case 0:
			LCD_UserInput = KEYPAD_Get_Pressed_Key();
     5a0:	0e 94 ba 07 	call	0xf74	; 0xf74 <KEYPAD_Get_Pressed_Key>
     5a4:	80 93 52 06 	sts	0x0652, r24	; 0x800652 <LCD_UserInput>
			if (LCD_UserInput == '\0') break;
     5a8:	88 23       	and	r24, r24
     5aa:	09 f4       	brne	.+2      	; 0x5ae <LCD_Process+0x28>
     5ac:	73 c1       	rjmp	.+742    	; 0x894 <__stack+0x35>
			else{
				LCD_UserInput = '\0';
     5ae:	10 92 52 06 	sts	0x0652, r1	; 0x800652 <LCD_UserInput>
				LCD_g_step++;
     5b2:	80 91 53 06 	lds	r24, 0x0653	; 0x800653 <LCD_g_step>
     5b6:	8f 5f       	subi	r24, 0xFF	; 255
     5b8:	80 93 53 06 	sts	0x0653, r24	; 0x800653 <LCD_g_step>
			}
			break;
     5bc:	08 95       	ret
		case 1:
			LCD_Show(1);// Show Request UserID
     5be:	81 e0       	ldi	r24, 0x01	; 1
     5c0:	0e 94 64 02 	call	0x4c8	; 0x4c8 <LCD_Show>
			LCD_g_step++;
     5c4:	80 91 53 06 	lds	r24, 0x0653	; 0x800653 <LCD_g_step>
     5c8:	8f 5f       	subi	r24, 0xFF	; 255
     5ca:	80 93 53 06 	sts	0x0653, r24	; 0x800653 <LCD_g_step>
			break;
     5ce:	08 95       	ret
		case 2:
			// Get user ID
			LCD_UserInput = KEYPAD_Get_Pressed_Key();
     5d0:	0e 94 ba 07 	call	0xf74	; 0xf74 <KEYPAD_Get_Pressed_Key>
     5d4:	80 93 52 06 	sts	0x0652, r24	; 0x800652 <LCD_UserInput>
			if (LCD_UserInput == '\0') break;
     5d8:	88 23       	and	r24, r24
     5da:	09 f4       	brne	.+2      	; 0x5de <LCD_Process+0x58>
     5dc:	5b c1       	rjmp	.+694    	; 0x894 <__stack+0x35>
			if (LCD_UserInput >= '0' && LCD_UserInput <= '9'){
     5de:	90 ed       	ldi	r25, 0xD0	; 208
     5e0:	98 0f       	add	r25, r24
     5e2:	9a 30       	cpi	r25, 0x0A	; 10
     5e4:	78 f4       	brcc	.+30     	; 0x604 <LCD_Process+0x7e>
				LCD_Send_Char(LCD_UserInput);
     5e6:	0e 94 2e 0a 	call	0x145c	; 0x145c <LCD_Send_Char>
				LCD_UserID[LCD_user_count] = LCD_UserInput;
     5ea:	80 91 51 06 	lds	r24, 0x0651	; 0x800651 <LCD_user_count>
     5ee:	e8 2f       	mov	r30, r24
     5f0:	f0 e0       	ldi	r31, 0x00	; 0
     5f2:	e3 59       	subi	r30, 0x93	; 147
     5f4:	f9 4f       	sbci	r31, 0xF9	; 249
     5f6:	90 91 52 06 	lds	r25, 0x0652	; 0x800652 <LCD_UserInput>
     5fa:	90 83       	st	Z, r25
				LCD_user_count++;
     5fc:	8f 5f       	subi	r24, 0xFF	; 255
     5fe:	80 93 51 06 	sts	0x0651, r24	; 0x800651 <LCD_user_count>
     602:	1b c0       	rjmp	.+54     	; 0x63a <LCD_Process+0xb4>
			}else if (LCD_UserInput == '*' && LCD_user_count > 0){
     604:	8a 32       	cpi	r24, 0x2A	; 42
     606:	89 f4       	brne	.+34     	; 0x62a <LCD_Process+0xa4>
     608:	90 91 51 06 	lds	r25, 0x0651	; 0x800651 <LCD_user_count>
     60c:	99 23       	and	r25, r25
     60e:	69 f0       	breq	.+26     	; 0x62a <LCD_Process+0xa4>
				LCD_Delete_Last_Written();
     610:	0e 94 a5 0a 	call	0x154a	; 0x154a <LCD_Delete_Last_Written>
				LCD_UserID[LCD_user_count] = '\0';
     614:	80 91 51 06 	lds	r24, 0x0651	; 0x800651 <LCD_user_count>
     618:	e8 2f       	mov	r30, r24
     61a:	f0 e0       	ldi	r31, 0x00	; 0
     61c:	e3 59       	subi	r30, 0x93	; 147
     61e:	f9 4f       	sbci	r31, 0xF9	; 249
     620:	10 82       	st	Z, r1
				LCD_user_count--;
     622:	81 50       	subi	r24, 0x01	; 1
     624:	80 93 51 06 	sts	0x0651, r24	; 0x800651 <LCD_user_count>
     628:	08 c0       	rjmp	.+16     	; 0x63a <LCD_Process+0xb4>
			}else if (LCD_UserInput >= 'A' && LCD_UserInput <= 'D') {
     62a:	81 54       	subi	r24, 0x41	; 65
     62c:	84 30       	cpi	r24, 0x04	; 4
     62e:	28 f4       	brcc	.+10     	; 0x63a <LCD_Process+0xb4>
				LCD_g_step++;
     630:	80 91 53 06 	lds	r24, 0x0653	; 0x800653 <LCD_g_step>
     634:	8f 5f       	subi	r24, 0xFF	; 255
     636:	80 93 53 06 	sts	0x0653, r24	; 0x800653 <LCD_g_step>
			}
			LCD_UserInput = '\0';
     63a:	10 92 52 06 	sts	0x0652, r1	; 0x800652 <LCD_UserInput>
			break;
     63e:	08 95       	ret
		case 3:
			LCD_Show(2);// Show Request Password
     640:	82 e0       	ldi	r24, 0x02	; 2
     642:	0e 94 64 02 	call	0x4c8	; 0x4c8 <LCD_Show>
			LCD_g_step++;
     646:	80 91 53 06 	lds	r24, 0x0653	; 0x800653 <LCD_g_step>
     64a:	8f 5f       	subi	r24, 0xFF	; 255
     64c:	80 93 53 06 	sts	0x0653, r24	; 0x800653 <LCD_g_step>
			break;
     650:	08 95       	ret
		case 4:
			// Get user Password
			LCD_UserInput = KEYPAD_Get_Pressed_Key();
     652:	0e 94 ba 07 	call	0xf74	; 0xf74 <KEYPAD_Get_Pressed_Key>
     656:	80 93 52 06 	sts	0x0652, r24	; 0x800652 <LCD_UserInput>
			if (LCD_UserInput == '\0') break;
     65a:	88 23       	and	r24, r24
     65c:	09 f4       	brne	.+2      	; 0x660 <LCD_Process+0xda>
     65e:	1a c1       	rjmp	.+564    	; 0x894 <__stack+0x35>
			if (LCD_UserInput >= '0' && LCD_UserInput <= '9'){
     660:	90 ed       	ldi	r25, 0xD0	; 208
     662:	98 0f       	add	r25, r24
     664:	9a 30       	cpi	r25, 0x0A	; 10
     666:	78 f4       	brcc	.+30     	; 0x686 <LCD_Process+0x100>
				LCD_Send_Char(LCD_UserInput);
     668:	0e 94 2e 0a 	call	0x145c	; 0x145c <LCD_Send_Char>
				LCD_Password[LCD_pass_count] = LCD_UserInput;
     66c:	80 91 50 06 	lds	r24, 0x0650	; 0x800650 <LCD_pass_count>
     670:	e8 2f       	mov	r30, r24
     672:	f0 e0       	ldi	r31, 0x00	; 0
     674:	e8 56       	subi	r30, 0x68	; 104
     676:	f9 4f       	sbci	r31, 0xF9	; 249
     678:	90 91 52 06 	lds	r25, 0x0652	; 0x800652 <LCD_UserInput>
     67c:	90 83       	st	Z, r25
				LCD_pass_count++;
     67e:	8f 5f       	subi	r24, 0xFF	; 255
     680:	80 93 50 06 	sts	0x0650, r24	; 0x800650 <LCD_pass_count>
     684:	1b c0       	rjmp	.+54     	; 0x6bc <LCD_Process+0x136>
			}
			else if (LCD_UserInput == '*' && LCD_pass_count > 0){
     686:	8a 32       	cpi	r24, 0x2A	; 42
     688:	89 f4       	brne	.+34     	; 0x6ac <LCD_Process+0x126>
     68a:	90 91 50 06 	lds	r25, 0x0650	; 0x800650 <LCD_pass_count>
     68e:	99 23       	and	r25, r25
     690:	69 f0       	breq	.+26     	; 0x6ac <LCD_Process+0x126>
				LCD_Delete_Last_Written();
     692:	0e 94 a5 0a 	call	0x154a	; 0x154a <LCD_Delete_Last_Written>
				LCD_Password[LCD_pass_count] = '\0';
     696:	80 91 50 06 	lds	r24, 0x0650	; 0x800650 <LCD_pass_count>
     69a:	e8 2f       	mov	r30, r24
     69c:	f0 e0       	ldi	r31, 0x00	; 0
     69e:	e8 56       	subi	r30, 0x68	; 104
     6a0:	f9 4f       	sbci	r31, 0xF9	; 249
     6a2:	10 82       	st	Z, r1
				LCD_pass_count--;
     6a4:	81 50       	subi	r24, 0x01	; 1
     6a6:	80 93 50 06 	sts	0x0650, r24	; 0x800650 <LCD_pass_count>
     6aa:	08 c0       	rjmp	.+16     	; 0x6bc <LCD_Process+0x136>
			}
			else if (LCD_UserInput >= 'A' && LCD_UserInput <= 'D') {
     6ac:	81 54       	subi	r24, 0x41	; 65
     6ae:	84 30       	cpi	r24, 0x04	; 4
     6b0:	28 f4       	brcc	.+10     	; 0x6bc <LCD_Process+0x136>
				LCD_g_step++;
     6b2:	80 91 53 06 	lds	r24, 0x0653	; 0x800653 <LCD_g_step>
     6b6:	8f 5f       	subi	r24, 0xFF	; 255
     6b8:	80 93 53 06 	sts	0x0653, r24	; 0x800653 <LCD_g_step>
			}
			LCD_UserInput = '\0';
     6bc:	10 92 52 06 	sts	0x0652, r1	; 0x800652 <LCD_UserInput>
			break;
     6c0:	08 95       	ret
			
		case 5: 
			//User/Password Login Process
			// If User Exist, Fetch Password
			LCD_ID = atoi(LCD_UserID);
     6c2:	8d e6       	ldi	r24, 0x6D	; 109
     6c4:	96 e0       	ldi	r25, 0x06	; 6
     6c6:	0e 94 9e 0e 	call	0x1d3c	; 0x1d3c <atoi>
     6ca:	80 93 62 06 	sts	0x0662, r24	; 0x800662 <LCD_ID>
			if(EEPROM_Read_UserID_Exist(LCD_ID)){
     6ce:	0e 94 18 07 	call	0xe30	; 0xe30 <EEPROM_Read_UserID_Exist>
     6d2:	88 23       	and	r24, r24
     6d4:	39 f0       	breq	.+14     	; 0x6e4 <LCD_Process+0x15e>
				EEPROM_Read_8Data(LCD_ID,LCD_EE_Password,1);
     6d6:	41 e0       	ldi	r20, 0x01	; 1
     6d8:	60 eb       	ldi	r22, 0xB0	; 176
     6da:	76 e0       	ldi	r23, 0x06	; 6
     6dc:	80 91 62 06 	lds	r24, 0x0662	; 0x800662 <LCD_ID>
     6e0:	0e 94 01 07 	call	0xe02	; 0xe02 <EEPROM_Read_8Data>
			}
			//If password Match, Login Success!
			if(strcmp(LCD_Password,LCD_EE_Password) == 0){
     6e4:	60 eb       	ldi	r22, 0xB0	; 176
     6e6:	76 e0       	ldi	r23, 0x06	; 6
     6e8:	88 e9       	ldi	r24, 0x98	; 152
     6ea:	96 e0       	ldi	r25, 0x06	; 6
     6ec:	0e 94 bc 0e 	call	0x1d78	; 0x1d78 <strcmp>
     6f0:	89 2b       	or	r24, r25
     6f2:	a1 f4       	brne	.+40     	; 0x71c <LCD_Process+0x196>
				EEPROM_Read_8Data(LCD_ID,LCD_EE_Username,2);
     6f4:	42 e0       	ldi	r20, 0x02	; 2
     6f6:	65 e7       	ldi	r22, 0x75	; 117
     6f8:	76 e0       	ldi	r23, 0x06	; 6
     6fa:	80 91 62 06 	lds	r24, 0x0662	; 0x800662 <LCD_ID>
     6fe:	0e 94 01 07 	call	0xe02	; 0xe02 <EEPROM_Read_8Data>
				LCD_Show(3);
     702:	83 e0       	ldi	r24, 0x03	; 3
     704:	0e 94 64 02 	call	0x4c8	; 0x4c8 <LCD_Show>
				LCD_Send_String(LCD_EE_Username);
     708:	85 e7       	ldi	r24, 0x75	; 117
     70a:	96 e0       	ldi	r25, 0x06	; 6
     70c:	0e 94 c1 0a 	call	0x1582	; 0x1582 <LCD_Send_String>
				LCD_g_step++;
     710:	80 91 53 06 	lds	r24, 0x0653	; 0x800653 <LCD_g_step>
     714:	8f 5f       	subi	r24, 0xFF	; 255
     716:	80 93 53 06 	sts	0x0653, r24	; 0x800653 <LCD_g_step>
     71a:	08 95       	ret
			}else{
				//Else Login Failed, Increase Fail Counter
				LCD_Show(4);// Auth Failed
     71c:	84 e0       	ldi	r24, 0x04	; 4
     71e:	0e 94 64 02 	call	0x4c8	; 0x4c8 <LCD_Show>
				LCD_Fail_Count++;
     722:	80 91 4f 06 	lds	r24, 0x064F	; 0x80064f <LCD_Fail_Count>
     726:	8f 5f       	subi	r24, 0xFF	; 255
     728:	80 93 4f 06 	sts	0x064F, r24	; 0x80064f <LCD_Fail_Count>
				LCD_user_count = 0;
     72c:	10 92 51 06 	sts	0x0651, r1	; 0x800651 <LCD_user_count>
				LCD_pass_count = 0;
     730:	10 92 50 06 	sts	0x0650, r1	; 0x800650 <LCD_pass_count>
				LCD_g_step = 1;
     734:	91 e0       	ldi	r25, 0x01	; 1
     736:	90 93 53 06 	sts	0x0653, r25	; 0x800653 <LCD_g_step>
				if(LCD_Fail_Count == Max_Failure_Login_Count){
     73a:	90 91 66 00 	lds	r25, 0x0066	; 0x800066 <Max_Failure_Login_Count>
     73e:	89 13       	cpse	r24, r25
     740:	a9 c0       	rjmp	.+338    	; 0x894 <__stack+0x35>
					UART_Send_String_Polling_8("\nKEYPAD Login Failed, \nSystem Locked! \n");
     742:	88 e0       	ldi	r24, 0x08	; 8
     744:	92 e0       	ldi	r25, 0x02	; 2
     746:	0e 94 66 0d 	call	0x1acc	; 0x1acc <UART_Send_String_Polling_8>
					LCD_Show(10);// System Locked
     74a:	8a e0       	ldi	r24, 0x0A	; 10
     74c:	0e 94 64 02 	call	0x4c8	; 0x4c8 <LCD_Show>
					BUZZER_ALARM_TILL_RESET();
     750:	0e 94 2e 05 	call	0xa5c	; 0xa5c <BUZZER_ALARM_TILL_RESET>
     754:	08 95       	ret
	#else
		//round up by default
		__ticks_dc = (uint32_t)(ceil(fabs(__tmp)));
	#endif

	__builtin_avr_delay_cycles(__ticks_dc);
     756:	2f ef       	ldi	r18, 0xFF	; 255
     758:	83 ed       	ldi	r24, 0xD3	; 211
     75a:	90 e3       	ldi	r25, 0x30	; 48
     75c:	21 50       	subi	r18, 0x01	; 1
     75e:	80 40       	sbci	r24, 0x00	; 0
     760:	90 40       	sbci	r25, 0x00	; 0
     762:	e1 f7       	brne	.-8      	; 0x75c <LCD_Process+0x1d6>
     764:	00 c0       	rjmp	.+0      	; 0x766 <LCD_Process+0x1e0>
     766:	00 00       	nop
			break;
			
			
		case 6:
			_delay_ms(1000);
			LCD_Show(6);// Main_Options
     768:	86 e0       	ldi	r24, 0x06	; 6
     76a:	0e 94 64 02 	call	0x4c8	; 0x4c8 <LCD_Show>
			LCD_g_step++;
     76e:	80 91 53 06 	lds	r24, 0x0653	; 0x800653 <LCD_g_step>
     772:	8f 5f       	subi	r24, 0xFF	; 255
     774:	80 93 53 06 	sts	0x0653, r24	; 0x800653 <LCD_g_step>
			break;
     778:	08 95       	ret
		case 7:
			LCD_UserInput = KEYPAD_Get_Pressed_Key();
     77a:	0e 94 ba 07 	call	0xf74	; 0xf74 <KEYPAD_Get_Pressed_Key>
     77e:	80 93 52 06 	sts	0x0652, r24	; 0x800652 <LCD_UserInput>
			if (LCD_UserInput == '\0') break;
     782:	88 23       	and	r24, r24
     784:	09 f4       	brne	.+2      	; 0x788 <LCD_Process+0x202>
     786:	86 c0       	rjmp	.+268    	; 0x894 <__stack+0x35>
			if (LCD_UserInput > '0' && LCD_UserInput <= '4'){
     788:	9f ec       	ldi	r25, 0xCF	; 207
     78a:	98 0f       	add	r25, r24
     78c:	94 30       	cpi	r25, 0x04	; 4
     78e:	58 f4       	brcc	.+22     	; 0x7a6 <LCD_Process+0x220>
				LCD_g_choice1 = LCD_UserInput - 48;
     790:	80 53       	subi	r24, 0x30	; 48
     792:	80 93 4e 06 	sts	0x064E, r24	; 0x80064e <LCD_g_choice1>
				LCD_UserInput = '\0';
     796:	10 92 52 06 	sts	0x0652, r1	; 0x800652 <LCD_UserInput>
				LCD_g_step++;
     79a:	80 91 53 06 	lds	r24, 0x0653	; 0x800653 <LCD_g_step>
     79e:	8f 5f       	subi	r24, 0xFF	; 255
     7a0:	80 93 53 06 	sts	0x0653, r24	; 0x800653 <LCD_g_step>
     7a4:	08 95       	ret
			}else{
				LCD_Show(5);// Invalid Selected
     7a6:	85 e0       	ldi	r24, 0x05	; 5
     7a8:	0e 94 64 02 	call	0x4c8	; 0x4c8 <LCD_Show>
				//_delay_ms(1000);
				LCD_g_step--;
     7ac:	80 91 53 06 	lds	r24, 0x0653	; 0x800653 <LCD_g_step>
     7b0:	81 50       	subi	r24, 0x01	; 1
     7b2:	80 93 53 06 	sts	0x0653, r24	; 0x800653 <LCD_g_step>
     7b6:	08 95       	ret
			}
			break;

		case 8:
			LCD_g_step++;
     7b8:	2f 5f       	subi	r18, 0xFF	; 255
     7ba:	20 93 53 06 	sts	0x0653, r18	; 0x800653 <LCD_g_step>
			switch(LCD_g_choice1){
     7be:	80 91 4e 06 	lds	r24, 0x064E	; 0x80064e <LCD_g_choice1>
     7c2:	82 30       	cpi	r24, 0x02	; 2
     7c4:	69 f0       	breq	.+26     	; 0x7e0 <LCD_Process+0x25a>
     7c6:	18 f4       	brcc	.+6      	; 0x7ce <LCD_Process+0x248>
     7c8:	81 30       	cpi	r24, 0x01	; 1
     7ca:	31 f0       	breq	.+12     	; 0x7d8 <LCD_Process+0x252>
     7cc:	08 95       	ret
     7ce:	83 30       	cpi	r24, 0x03	; 3
     7d0:	59 f0       	breq	.+22     	; 0x7e8 <LCD_Process+0x262>
     7d2:	84 30       	cpi	r24, 0x04	; 4
     7d4:	69 f0       	breq	.+26     	; 0x7f0 <LCD_Process+0x26a>
     7d6:	08 95       	ret
				case 1: LCD_Show(7);break;//AC_Options
     7d8:	87 e0       	ldi	r24, 0x07	; 7
     7da:	0e 94 64 02 	call	0x4c8	; 0x4c8 <LCD_Show>
     7de:	08 95       	ret
				case 2: LCD_Show(8);break;//Dimmer_Options
     7e0:	88 e0       	ldi	r24, 0x08	; 8
     7e2:	0e 94 64 02 	call	0x4c8	; 0x4c8 <LCD_Show>
     7e6:	08 95       	ret
				case 3: LCD_Show(9);break;//LED_Options
     7e8:	89 e0       	ldi	r24, 0x09	; 9
     7ea:	0e 94 64 02 	call	0x4c8	; 0x4c8 <LCD_Show>
     7ee:	08 95       	ret
				case 4: LCD_Send_Clear_Screen();LCD_g_step = 0; break;//Logout
     7f0:	0e 94 db 09 	call	0x13b6	; 0x13b6 <LCD_Send_Clear_Screen>
     7f4:	10 92 53 06 	sts	0x0653, r1	; 0x800653 <LCD_g_step>
     7f8:	08 95       	ret
			}
			break;
		case 9:
			LCD_UserInput = KEYPAD_Get_Pressed_Key();
     7fa:	0e 94 ba 07 	call	0xf74	; 0xf74 <KEYPAD_Get_Pressed_Key>
     7fe:	80 93 52 06 	sts	0x0652, r24	; 0x800652 <LCD_UserInput>
			if (LCD_UserInput == '\0') break;
     802:	88 23       	and	r24, r24
     804:	09 f4       	brne	.+2      	; 0x808 <__DATA_REGION_LENGTH__+0x8>
     806:	46 c0       	rjmp	.+140    	; 0x894 <__stack+0x35>
			if (LCD_UserInput > '0' && LCD_UserInput <= '4'){
     808:	9f ec       	ldi	r25, 0xCF	; 207
     80a:	98 0f       	add	r25, r24
     80c:	94 30       	cpi	r25, 0x04	; 4
     80e:	58 f4       	brcc	.+22     	; 0x826 <__DATA_REGION_LENGTH__+0x26>
				LCD_g_choice2 = LCD_UserInput - 48;
     810:	80 53       	subi	r24, 0x30	; 48
     812:	80 93 4d 06 	sts	0x064D, r24	; 0x80064d <LCD_g_choice2>
				LCD_UserInput = '\0';
     816:	10 92 52 06 	sts	0x0652, r1	; 0x800652 <LCD_UserInput>
				LCD_g_step++;
     81a:	80 91 53 06 	lds	r24, 0x0653	; 0x800653 <LCD_g_step>
     81e:	8f 5f       	subi	r24, 0xFF	; 255
     820:	80 93 53 06 	sts	0x0653, r24	; 0x800653 <LCD_g_step>
     824:	08 95       	ret
				}else{
				LCD_Show(5);// Invalid Selected
     826:	85 e0       	ldi	r24, 0x05	; 5
     828:	0e 94 64 02 	call	0x4c8	; 0x4c8 <LCD_Show>
				LCD_g_step--;
     82c:	80 91 53 06 	lds	r24, 0x0653	; 0x800653 <LCD_g_step>
     830:	81 50       	subi	r24, 0x01	; 1
     832:	80 93 53 06 	sts	0x0653, r24	; 0x800653 <LCD_g_step>
     836:	08 95       	ret
			}
			break;
		case 10:
			switch(LCD_g_choice1){
     838:	80 91 4e 06 	lds	r24, 0x064E	; 0x80064e <LCD_g_choice1>
     83c:	82 30       	cpi	r24, 0x02	; 2
     83e:	89 f0       	breq	.+34     	; 0x862 <__stack+0x3>
     840:	83 30       	cpi	r24, 0x03	; 3
     842:	e1 f0       	breq	.+56     	; 0x87c <__stack+0x1d>
     844:	81 30       	cpi	r24, 0x01	; 1
     846:	31 f5       	brne	.+76     	; 0x894 <__stack+0x35>
				case 1: 
					if(LCD_g_choice2 <4) AC_Feedback(LCD_g_choice2);
     848:	80 91 4d 06 	lds	r24, 0x064D	; 0x80064d <LCD_g_choice2>
     84c:	84 30       	cpi	r24, 0x04	; 4
     84e:	18 f4       	brcc	.+6      	; 0x856 <__DATA_REGION_LENGTH__+0x56>
     850:	0e 94 ee 04 	call	0x9dc	; 0x9dc <AC_Feedback>
     854:	08 95       	ret
					else if(LCD_g_choice2 == 9){
     856:	89 30       	cpi	r24, 0x09	; 9
     858:	e9 f4       	brne	.+58     	; 0x894 <__stack+0x35>
						LCD_g_step-=4;
     85a:	24 50       	subi	r18, 0x04	; 4
     85c:	20 93 53 06 	sts	0x0653, r18	; 0x800653 <LCD_g_step>
     860:	08 95       	ret
					}
					break;
				case 2: 
					if(LCD_g_choice2 < 3) Dimmer_Feedback(LCD_g_choice2);
     862:	80 91 4d 06 	lds	r24, 0x064D	; 0x80064d <LCD_g_choice2>
     866:	83 30       	cpi	r24, 0x03	; 3
     868:	18 f4       	brcc	.+6      	; 0x870 <__stack+0x11>
     86a:	0e 94 7b 05 	call	0xaf6	; 0xaf6 <Dimmer_Feedback>
     86e:	08 95       	ret
					else if(LCD_g_choice2 == 9){
     870:	89 30       	cpi	r24, 0x09	; 9
     872:	81 f4       	brne	.+32     	; 0x894 <__stack+0x35>
						LCD_g_step-=4;
     874:	24 50       	subi	r18, 0x04	; 4
     876:	20 93 53 06 	sts	0x0653, r18	; 0x800653 <LCD_g_step>
     87a:	08 95       	ret
					}
					break;
				case 3: 
					if(LCD_g_choice2 < 6) Dimmer_Feedback(LCD_g_choice2);
     87c:	80 91 4d 06 	lds	r24, 0x064D	; 0x80064d <LCD_g_choice2>
     880:	86 30       	cpi	r24, 0x06	; 6
     882:	18 f4       	brcc	.+6      	; 0x88a <__stack+0x2b>
     884:	0e 94 7b 05 	call	0xaf6	; 0xaf6 <Dimmer_Feedback>
     888:	08 95       	ret
					else if(LCD_g_choice2 == 9){
     88a:	89 30       	cpi	r24, 0x09	; 9
     88c:	19 f4       	brne	.+6      	; 0x894 <__stack+0x35>
						LCD_g_step-=4;
     88e:	24 50       	subi	r18, 0x04	; 4
     890:	20 93 53 06 	sts	0x0653, r18	; 0x800653 <LCD_g_step>
     894:	08 95       	ret

00000896 <LCD_Idle>:
			}
			break;
	}
}

void LCD_Idle(){
     896:	cf 93       	push	r28
     898:	df 93       	push	r29
     89a:	00 d0       	rcall	.+0      	; 0x89c <LCD_Idle+0x6>
     89c:	1f 92       	push	r1
     89e:	cd b7       	in	r28, 0x3d	; 61
     8a0:	de b7       	in	r29, 0x3e	; 62
	//[AC(ON) Temp(30c)]
	//[        (0) More]
	// Counter to limit the number of Running This function
	LCD_Idle_Stop++;
     8a2:	80 91 4b 06 	lds	r24, 0x064B	; 0x80064b <LCD_Idle_Stop>
     8a6:	90 91 4c 06 	lds	r25, 0x064C	; 0x80064c <LCD_Idle_Stop+0x1>
     8aa:	01 96       	adiw	r24, 0x01	; 1
     8ac:	90 93 4c 06 	sts	0x064C, r25	; 0x80064c <LCD_Idle_Stop+0x1>
     8b0:	80 93 4b 06 	sts	0x064B, r24	; 0x80064b <LCD_Idle_Stop>
	if(LCD_Idle_Stop > 7900){
     8b4:	8d 3d       	cpi	r24, 0xDD	; 221
     8b6:	9e 41       	sbci	r25, 0x1E	; 30
     8b8:	20 f0       	brcs	.+8      	; 0x8c2 <LCD_Idle+0x2c>
		LCD_Idle_Stop = 0;
     8ba:	10 92 4c 06 	sts	0x064C, r1	; 0x80064c <LCD_Idle_Stop+0x1>
     8be:	10 92 4b 06 	sts	0x064B, r1	; 0x80064b <LCD_Idle_Stop>
	}
	if(LCD_g_step != 0) return;
     8c2:	80 91 53 06 	lds	r24, 0x0653	; 0x800653 <LCD_g_step>
     8c6:	81 11       	cpse	r24, r1
     8c8:	46 c0       	rjmp	.+140    	; 0x956 <LCD_Idle+0xc0>
	if(LCD_g_step == 0 && LCD_Idle_Stop == 0){
     8ca:	81 11       	cpse	r24, r1
     8cc:	44 c0       	rjmp	.+136    	; 0x956 <LCD_Idle+0xc0>
     8ce:	80 91 4b 06 	lds	r24, 0x064B	; 0x80064b <LCD_Idle_Stop>
     8d2:	90 91 4c 06 	lds	r25, 0x064C	; 0x80064c <LCD_Idle_Stop+0x1>
     8d6:	89 2b       	or	r24, r25
     8d8:	f1 f5       	brne	.+124    	; 0x956 <LCD_Idle+0xc0>
		//LCD_Send_Clear_Screen(); // Clears anything on screen
		sint8 snum[3];
		itoa(g_Temp, snum, 10);
     8da:	80 91 60 00 	lds	r24, 0x0060	; 0x800060 <__DATA_REGION_ORIGIN__>
    } else if (__radix < 2 || __radix > 36) {
	*__s = 0;
	return __s;
    } else {
	extern char *__itoa_ncheck (int, char *, unsigned char);
	return __itoa_ncheck (__val, __s, __radix);
     8de:	4a e0       	ldi	r20, 0x0A	; 10
     8e0:	be 01       	movw	r22, r28
     8e2:	6f 5f       	subi	r22, 0xFF	; 255
     8e4:	7f 4f       	sbci	r23, 0xFF	; 255
     8e6:	90 e0       	ldi	r25, 0x00	; 0
     8e8:	0e 94 cc 0e 	call	0x1d98	; 0x1d98 <__itoa_ncheck>
		LCD_Send_String("AC("); // AC(O as it can be On or Off
     8ec:	80 e3       	ldi	r24, 0x30	; 48
     8ee:	92 e0       	ldi	r25, 0x02	; 2
     8f0:	0e 94 c1 0a 	call	0x1582	; 0x1582 <LCD_Send_String>
		if     (AC_State == 0) LCD_Send_String("OFF)");
     8f4:	80 91 61 00 	lds	r24, 0x0061	; 0x800061 <AC_State>
     8f8:	81 11       	cpse	r24, r1
     8fa:	05 c0       	rjmp	.+10     	; 0x906 <LCD_Idle+0x70>
     8fc:	84 e3       	ldi	r24, 0x34	; 52
     8fe:	92 e0       	ldi	r25, 0x02	; 2
     900:	0e 94 c1 0a 	call	0x1582	; 0x1582 <LCD_Send_String>
     904:	0d c0       	rjmp	.+26     	; 0x920 <LCD_Idle+0x8a>
		else if(AC_State == 1) LCD_Send_String("ON) ");
     906:	81 30       	cpi	r24, 0x01	; 1
     908:	29 f4       	brne	.+10     	; 0x914 <LCD_Idle+0x7e>
     90a:	89 e3       	ldi	r24, 0x39	; 57
     90c:	92 e0       	ldi	r25, 0x02	; 2
     90e:	0e 94 c1 0a 	call	0x1582	; 0x1582 <LCD_Send_String>
     912:	06 c0       	rjmp	.+12     	; 0x920 <LCD_Idle+0x8a>
		else if(AC_State == 2) LCD_Send_String("Aut)"); 
     914:	82 30       	cpi	r24, 0x02	; 2
     916:	21 f4       	brne	.+8      	; 0x920 <LCD_Idle+0x8a>
     918:	8e e3       	ldi	r24, 0x3E	; 62
     91a:	92 e0       	ldi	r25, 0x02	; 2
     91c:	0e 94 c1 0a 	call	0x1582	; 0x1582 <LCD_Send_String>
		LCD_Send_String("Temp(");
     920:	83 e4       	ldi	r24, 0x43	; 67
     922:	92 e0       	ldi	r25, 0x02	; 2
     924:	0e 94 c1 0a 	call	0x1582	; 0x1582 <LCD_Send_String>
		LCD_Send_String(snum);
     928:	ce 01       	movw	r24, r28
     92a:	01 96       	adiw	r24, 0x01	; 1
     92c:	0e 94 c1 0a 	call	0x1582	; 0x1582 <LCD_Send_String>
		if     (g_Temp <  10) LCD_Send_String("c) ");
     930:	80 91 60 00 	lds	r24, 0x0060	; 0x800060 <__DATA_REGION_ORIGIN__>
     934:	8a 30       	cpi	r24, 0x0A	; 10
     936:	28 f4       	brcc	.+10     	; 0x942 <LCD_Idle+0xac>
     938:	89 e4       	ldi	r24, 0x49	; 73
     93a:	92 e0       	ldi	r25, 0x02	; 2
     93c:	0e 94 c1 0a 	call	0x1582	; 0x1582 <LCD_Send_String>
     940:	06 c0       	rjmp	.+12     	; 0x94e <LCD_Idle+0xb8>
		else if(g_Temp >= 10) LCD_Send_String("c)");
     942:	8a 30       	cpi	r24, 0x0A	; 10
     944:	20 f0       	brcs	.+8      	; 0x94e <LCD_Idle+0xb8>
     946:	8d e4       	ldi	r24, 0x4D	; 77
     948:	92 e0       	ldi	r25, 0x02	; 2
     94a:	0e 94 c1 0a 	call	0x1582	; 0x1582 <LCD_Send_String>
		LCD_Send_String("        (0) More");
     94e:	80 e5       	ldi	r24, 0x50	; 80
     950:	92 e0       	ldi	r25, 0x02	; 2
     952:	0e 94 c1 0a 	call	0x1582	; 0x1582 <LCD_Send_String>
		// To prevent screen Reloading So fast
	}
}
     956:	0f 90       	pop	r0
     958:	0f 90       	pop	r0
     95a:	0f 90       	pop	r0
     95c:	df 91       	pop	r29
     95e:	cf 91       	pop	r28
     960:	08 95       	ret

00000962 <AC_Auto_Idle>:

void AC_Auto_Idle(){
	// If AC is manual not Auto Return
	if(AC_State != 2) return;
     962:	80 91 61 00 	lds	r24, 0x0061	; 0x800061 <AC_State>
     966:	82 30       	cpi	r24, 0x02	; 2
     968:	b1 f4       	brne	.+44     	; 0x996 <AC_Auto_Idle+0x34>
	
	//When AC set To Auto Mode
	if(AC_State == 2){
     96a:	82 30       	cpi	r24, 0x02	; 2
     96c:	a1 f4       	brne	.+40     	; 0x996 <AC_Auto_Idle+0x34>
		//When Temperature is Higher than Hot
		if(g_Temp >= AC_Auto_Threshold_Up){
     96e:	80 91 60 00 	lds	r24, 0x0060	; 0x800060 <__DATA_REGION_ORIGIN__>
     972:	90 91 64 00 	lds	r25, 0x0064	; 0x800064 <AC_Auto_Threshold_Up>
     976:	89 17       	cp	r24, r25
     978:	30 f0       	brcs	.+12     	; 0x986 <AC_Auto_Idle+0x24>
			AC_On();
     97a:	0e 94 dd 04 	call	0x9ba	; 0x9ba <AC_On>
			AC_State = 1;
     97e:	81 e0       	ldi	r24, 0x01	; 1
     980:	80 93 61 00 	sts	0x0061, r24	; 0x800061 <AC_State>
     984:	08 95       	ret
		}else if(g_Temp <= AC_Auto_Threshold_Down){//When Temperature is Lower than Cold
     986:	90 91 63 00 	lds	r25, 0x0063	; 0x800063 <AC_Auto_Threshold_Down>
     98a:	98 17       	cp	r25, r24
     98c:	20 f0       	brcs	.+8      	; 0x996 <AC_Auto_Idle+0x34>
			AC_Off();
     98e:	0e 94 e6 04 	call	0x9cc	; 0x9cc <AC_Off>
			AC_State = 0;
     992:	10 92 61 00 	sts	0x0061, r1	; 0x800061 <AC_State>
     996:	08 95       	ret

00000998 <Smart_Idle>:
}

void Smart_Idle(){
	// There are 5 things should always work at idle
	// 1) UART Bluetooth (Interrupt)
		UART_Process();
     998:	0e 94 17 01 	call	0x22e	; 0x22e <UART_Process>
	// 2) LCD & Keypad system
		LCD_Process();
     99c:	0e 94 c3 02 	call	0x586	; 0x586 <LCD_Process>
	// 3) LCD Idle
		LCD_Idle();
     9a0:	0e 94 4b 04 	call	0x896	; 0x896 <LCD_Idle>
	// 4) The door Servo				(Timer1 + Interrupt)
	// 5) The Dimmer					(Timer0 + Interrupt)
	// 6) The Temp/AC Auto/				(ADC Polling Prescaler 2 Fast)
		ADC_Temperature_Update();
     9a4:	0e 94 0d 01 	call	0x21a	; 0x21a <ADC_Temperature_Update>
		AC_Auto_Idle();
     9a8:	0e 94 b1 04 	call	0x962	; 0x962 <AC_Auto_Idle>
     9ac:	08 95       	ret

000009ae <AC_Initialization>:

extern uint8 AC_State;

void AC_Initialization()
{
	DIO_Set_Pin_Direction(AC_Port,AC_Pin,Out);
     9ae:	41 e0       	ldi	r20, 0x01	; 1
     9b0:	62 e0       	ldi	r22, 0x02	; 2
     9b2:	80 e0       	ldi	r24, 0x00	; 0
     9b4:	0e 94 a0 0b 	call	0x1740	; 0x1740 <DIO_Set_Pin_Direction>
     9b8:	08 95       	ret

000009ba <AC_On>:
}
void AC_On(){
	DIO_Set_Pin_Output(AC_Port,AC_Pin,High);
     9ba:	41 e0       	ldi	r20, 0x01	; 1
     9bc:	62 e0       	ldi	r22, 0x02	; 2
     9be:	80 e0       	ldi	r24, 0x00	; 0
     9c0:	0e 94 10 0c 	call	0x1820	; 0x1820 <DIO_Set_Pin_Output>
	AC_State = 1;
     9c4:	81 e0       	ldi	r24, 0x01	; 1
     9c6:	80 93 61 00 	sts	0x0061, r24	; 0x800061 <AC_State>
     9ca:	08 95       	ret

000009cc <AC_Off>:
}
void AC_Off(){
	DIO_Set_Pin_Output(AC_Port,AC_Pin,Low);
     9cc:	40 e0       	ldi	r20, 0x00	; 0
     9ce:	62 e0       	ldi	r22, 0x02	; 2
     9d0:	80 e0       	ldi	r24, 0x00	; 0
     9d2:	0e 94 10 0c 	call	0x1820	; 0x1820 <DIO_Set_Pin_Output>
	AC_State = 0;
     9d6:	10 92 61 00 	sts	0x0061, r1	; 0x800061 <AC_State>
     9da:	08 95       	ret

000009dc <AC_Feedback>:

void AC_Feedback(uint8 New_Feed){
	//1 Means Turn Automatic AC
	//2 Means Turn Off AC Manual
	//3 Means Turn On AC Manual
	switch(New_Feed){
     9dc:	82 30       	cpi	r24, 0x02	; 2
     9de:	a9 f0       	breq	.+42     	; 0xa0a <AC_Feedback+0x2e>
     9e0:	83 30       	cpi	r24, 0x03	; 3
     9e2:	19 f1       	breq	.+70     	; 0xa2a <AC_Feedback+0x4e>
     9e4:	81 30       	cpi	r24, 0x01	; 1
     9e6:	89 f5       	brne	.+98     	; 0xa4a <AC_Feedback+0x6e>
		case 1:
			if(AC_State == 2){
     9e8:	80 91 61 00 	lds	r24, 0x0061	; 0x800061 <AC_State>
     9ec:	82 30       	cpi	r24, 0x02	; 2
     9ee:	29 f4       	brne	.+10     	; 0x9fa <AC_Feedback+0x1e>
					UART_Send_String_Polling_8("AC is Already Auto!");
     9f0:	81 e6       	ldi	r24, 0x61	; 97
     9f2:	92 e0       	ldi	r25, 0x02	; 2
     9f4:	0e 94 66 0d 	call	0x1acc	; 0x1acc <UART_Send_String_Polling_8>
     9f8:	08 95       	ret
			}else{
				AC_State = 2;
     9fa:	82 e0       	ldi	r24, 0x02	; 2
     9fc:	80 93 61 00 	sts	0x0061, r24	; 0x800061 <AC_State>
				UART_Send_String_Polling_8("AC Auto Success!");
     a00:	85 e7       	ldi	r24, 0x75	; 117
     a02:	92 e0       	ldi	r25, 0x02	; 2
     a04:	0e 94 66 0d 	call	0x1acc	; 0x1acc <UART_Send_String_Polling_8>
     a08:	08 95       	ret
			}
			break;
		case 2:
				if(AC_State == 0){
     a0a:	80 91 61 00 	lds	r24, 0x0061	; 0x800061 <AC_State>
     a0e:	81 11       	cpse	r24, r1
     a10:	05 c0       	rjmp	.+10     	; 0xa1c <AC_Feedback+0x40>
					UART_Send_String_Polling_8("AC is Already Closed!");
     a12:	86 e8       	ldi	r24, 0x86	; 134
     a14:	92 e0       	ldi	r25, 0x02	; 2
     a16:	0e 94 66 0d 	call	0x1acc	; 0x1acc <UART_Send_String_Polling_8>
     a1a:	08 95       	ret
				}else{
					AC_Off();
     a1c:	0e 94 e6 04 	call	0x9cc	; 0x9cc <AC_Off>
					UART_Send_String_Polling_8("AC Turned Off Success!");
     a20:	8c e9       	ldi	r24, 0x9C	; 156
     a22:	92 e0       	ldi	r25, 0x02	; 2
     a24:	0e 94 66 0d 	call	0x1acc	; 0x1acc <UART_Send_String_Polling_8>
     a28:	08 95       	ret
				}
			break;
		case 3:
			if(AC_State == 1){
     a2a:	80 91 61 00 	lds	r24, 0x0061	; 0x800061 <AC_State>
     a2e:	81 30       	cpi	r24, 0x01	; 1
     a30:	29 f4       	brne	.+10     	; 0xa3c <AC_Feedback+0x60>
				UART_Send_String_Polling_8("AC Already Turned ON!");
     a32:	83 eb       	ldi	r24, 0xB3	; 179
     a34:	92 e0       	ldi	r25, 0x02	; 2
     a36:	0e 94 66 0d 	call	0x1acc	; 0x1acc <UART_Send_String_Polling_8>
     a3a:	08 95       	ret
			}else{
				AC_On();
     a3c:	0e 94 dd 04 	call	0x9ba	; 0x9ba <AC_On>
				UART_Send_String_Polling_8("AC Turned On Success!");
     a40:	89 ec       	ldi	r24, 0xC9	; 201
     a42:	92 e0       	ldi	r25, 0x02	; 2
     a44:	0e 94 66 0d 	call	0x1acc	; 0x1acc <UART_Send_String_Polling_8>
     a48:	08 95       	ret
			}
			break;
		default:UART_Show_Invalid();break;
     a4a:	0e 94 a4 0d 	call	0x1b48	; 0x1b48 <UART_Show_Invalid>
     a4e:	08 95       	ret

00000a50 <BUZZER_On>:
     a50:	41 e0       	ldi	r20, 0x01	; 1
     a52:	63 e0       	ldi	r22, 0x03	; 3
     a54:	80 e0       	ldi	r24, 0x00	; 0
     a56:	0e 94 10 0c 	call	0x1820	; 0x1820 <DIO_Set_Pin_Output>
     a5a:	08 95       	ret

00000a5c <BUZZER_ALARM_TILL_RESET>:
     a5c:	0e 94 e8 0c 	call	0x19d0	; 0x19d0 <GIE_Disable>
     a60:	0e 94 28 05 	call	0xa50	; 0xa50 <BUZZER_On>
     a64:	ff cf       	rjmp	.-2      	; 0xa64 <BUZZER_ALARM_TILL_RESET+0x8>

00000a66 <__vector_11>:
	if(G_Dimmer_Value >= 50){
		G_Dimmer_Value--;
	}
}
void Dimmer_On(){
	G_Dimmer_Value = 50;	
     a66:	1f 92       	push	r1
     a68:	0f 92       	push	r0
     a6a:	0f b6       	in	r0, 0x3f	; 63
     a6c:	0f 92       	push	r0
     a6e:	11 24       	eor	r1, r1
     a70:	2f 93       	push	r18
     a72:	3f 93       	push	r19
     a74:	4f 93       	push	r20
     a76:	5f 93       	push	r21
     a78:	6f 93       	push	r22
     a7a:	7f 93       	push	r23
     a7c:	8f 93       	push	r24
     a7e:	9f 93       	push	r25
     a80:	af 93       	push	r26
     a82:	bf 93       	push	r27
     a84:	ef 93       	push	r30
     a86:	ff 93       	push	r31
     a88:	90 91 58 06 	lds	r25, 0x0658	; 0x800658 <Dimmercounter.1761>
     a8c:	80 91 56 06 	lds	r24, 0x0656	; 0x800656 <G_Dimmer_Value>
     a90:	98 17       	cp	r25, r24
     a92:	30 f4       	brcc	.+12     	; 0xaa0 <__vector_11+0x3a>
     a94:	41 e0       	ldi	r20, 0x01	; 1
     a96:	63 e0       	ldi	r22, 0x03	; 3
     a98:	83 e0       	ldi	r24, 0x03	; 3
     a9a:	0e 94 10 0c 	call	0x1820	; 0x1820 <DIO_Set_Pin_Output>
     a9e:	07 c0       	rjmp	.+14     	; 0xaae <__vector_11+0x48>
     aa0:	98 17       	cp	r25, r24
     aa2:	28 f0       	brcs	.+10     	; 0xaae <__vector_11+0x48>
     aa4:	40 e0       	ldi	r20, 0x00	; 0
     aa6:	63 e0       	ldi	r22, 0x03	; 3
     aa8:	83 e0       	ldi	r24, 0x03	; 3
     aaa:	0e 94 10 0c 	call	0x1820	; 0x1820 <DIO_Set_Pin_Output>
     aae:	80 91 58 06 	lds	r24, 0x0658	; 0x800658 <Dimmercounter.1761>
     ab2:	8f 5f       	subi	r24, 0xFF	; 255
     ab4:	80 93 58 06 	sts	0x0658, r24	; 0x800658 <Dimmercounter.1761>
     ab8:	8d 3f       	cpi	r24, 0xFD	; 253
     aba:	10 f0       	brcs	.+4      	; 0xac0 <__vector_11+0x5a>
     abc:	10 92 58 06 	sts	0x0658, r1	; 0x800658 <Dimmercounter.1761>
     ac0:	ff 91       	pop	r31
     ac2:	ef 91       	pop	r30
     ac4:	bf 91       	pop	r27
     ac6:	af 91       	pop	r26
     ac8:	9f 91       	pop	r25
     aca:	8f 91       	pop	r24
     acc:	7f 91       	pop	r23
     ace:	6f 91       	pop	r22
     ad0:	5f 91       	pop	r21
     ad2:	4f 91       	pop	r20
     ad4:	3f 91       	pop	r19
     ad6:	2f 91       	pop	r18
     ad8:	0f 90       	pop	r0
     ada:	0f be       	out	0x3f, r0	; 63
     adc:	0f 90       	pop	r0
     ade:	1f 90       	pop	r1
     ae0:	18 95       	reti

00000ae2 <Dimmer_Init>:
     ae2:	41 e0       	ldi	r20, 0x01	; 1
     ae4:	63 e0       	ldi	r22, 0x03	; 3
     ae6:	83 e0       	ldi	r24, 0x03	; 3
     ae8:	0e 94 a0 0b 	call	0x1740	; 0x1740 <DIO_Set_Pin_Direction>
     aec:	0e 94 ec 0c 	call	0x19d8	; 0x19d8 <Timer0_Init>
     af0:	0e 94 02 0d 	call	0x1a04	; 0x1a04 <Timer0_Enable_Overflow_Interrupt>
     af4:	08 95       	ret

00000af6 <Dimmer_Feedback>:
     af6:	82 30       	cpi	r24, 0x02	; 2
     af8:	e9 f0       	breq	.+58     	; 0xb34 <Dimmer_Feedback+0x3e>
     afa:	18 f4       	brcc	.+6      	; 0xb02 <Dimmer_Feedback+0xc>
     afc:	81 30       	cpi	r24, 0x01	; 1
     afe:	31 f0       	breq	.+12     	; 0xb0c <Dimmer_Feedback+0x16>
     b00:	08 95       	ret
     b02:	83 30       	cpi	r24, 0x03	; 3
     b04:	51 f1       	breq	.+84     	; 0xb5a <Dimmer_Feedback+0x64>
     b06:	84 30       	cpi	r24, 0x04	; 4
     b08:	d1 f1       	breq	.+116    	; 0xb7e <Dimmer_Feedback+0x88>
     b0a:	08 95       	ret
     b0c:	80 91 56 06 	lds	r24, 0x0656	; 0x800656 <G_Dimmer_Value>
     b10:	8a 3f       	cpi	r24, 0xFA	; 250
     b12:	29 f4       	brne	.+10     	; 0xb1e <Dimmer_Feedback+0x28>
     b14:	8f ed       	ldi	r24, 0xDF	; 223
     b16:	92 e0       	ldi	r25, 0x02	; 2
     b18:	0e 94 66 0d 	call	0x1acc	; 0x1acc <UART_Send_String_Polling_8>
     b1c:	08 95       	ret
     b1e:	8a 3f       	cpi	r24, 0xFA	; 250
     b20:	08 f0       	brcs	.+2      	; 0xb24 <Dimmer_Feedback+0x2e>
     b22:	3f c0       	rjmp	.+126    	; 0xba2 <Dimmer_Feedback+0xac>
     b24:	8e 5c       	subi	r24, 0xCE	; 206
     b26:	80 93 56 06 	sts	0x0656, r24	; 0x800656 <G_Dimmer_Value>
     b2a:	8c ee       	ldi	r24, 0xEC	; 236
     b2c:	92 e0       	ldi	r25, 0x02	; 2
     b2e:	0e 94 66 0d 	call	0x1acc	; 0x1acc <UART_Send_String_Polling_8>
     b32:	08 95       	ret
     b34:	80 91 56 06 	lds	r24, 0x0656	; 0x800656 <G_Dimmer_Value>
     b38:	81 11       	cpse	r24, r1
     b3a:	05 c0       	rjmp	.+10     	; 0xb46 <Dimmer_Feedback+0x50>
     b3c:	8e ef       	ldi	r24, 0xFE	; 254
     b3e:	92 e0       	ldi	r25, 0x02	; 2
     b40:	0e 94 66 0d 	call	0x1acc	; 0x1acc <UART_Send_String_Polling_8>
     b44:	08 95       	ret
     b46:	88 23       	and	r24, r24
     b48:	61 f1       	breq	.+88     	; 0xba2 <Dimmer_Feedback+0xac>
     b4a:	82 53       	subi	r24, 0x32	; 50
     b4c:	80 93 56 06 	sts	0x0656, r24	; 0x800656 <G_Dimmer_Value>
     b50:	8b e0       	ldi	r24, 0x0B	; 11
     b52:	93 e0       	ldi	r25, 0x03	; 3
     b54:	0e 94 66 0d 	call	0x1acc	; 0x1acc <UART_Send_String_Polling_8>
     b58:	08 95       	ret
     b5a:	80 91 56 06 	lds	r24, 0x0656	; 0x800656 <G_Dimmer_Value>
     b5e:	81 11       	cpse	r24, r1
     b60:	05 c0       	rjmp	.+10     	; 0xb6c <Dimmer_Feedback+0x76>
     b62:	8d e1       	ldi	r24, 0x1D	; 29
     b64:	93 e0       	ldi	r25, 0x03	; 3
     b66:	0e 94 66 0d 	call	0x1acc	; 0x1acc <UART_Send_String_Polling_8>
     b6a:	08 95       	ret
     b6c:	88 23       	and	r24, r24
     b6e:	c9 f0       	breq	.+50     	; 0xba2 <Dimmer_Feedback+0xac>
     b70:	10 92 56 06 	sts	0x0656, r1	; 0x800656 <G_Dimmer_Value>
     b74:	8a e2       	ldi	r24, 0x2A	; 42
     b76:	93 e0       	ldi	r25, 0x03	; 3
     b78:	0e 94 66 0d 	call	0x1acc	; 0x1acc <UART_Send_String_Polling_8>
     b7c:	08 95       	ret
     b7e:	80 91 56 06 	lds	r24, 0x0656	; 0x800656 <G_Dimmer_Value>
     b82:	81 11       	cpse	r24, r1
     b84:	08 c0       	rjmp	.+16     	; 0xb96 <Dimmer_Feedback+0xa0>
     b86:	8e 5c       	subi	r24, 0xCE	; 206
     b88:	80 93 56 06 	sts	0x0656, r24	; 0x800656 <G_Dimmer_Value>
     b8c:	8c e3       	ldi	r24, 0x3C	; 60
     b8e:	93 e0       	ldi	r25, 0x03	; 3
     b90:	0e 94 66 0d 	call	0x1acc	; 0x1acc <UART_Send_String_Polling_8>
     b94:	08 95       	ret
     b96:	88 23       	and	r24, r24
     b98:	21 f0       	breq	.+8      	; 0xba2 <Dimmer_Feedback+0xac>
     b9a:	8d e4       	ldi	r24, 0x4D	; 77
     b9c:	93 e0       	ldi	r25, 0x03	; 3
     b9e:	0e 94 66 0d 	call	0x1acc	; 0x1acc <UART_Send_String_Polling_8>
     ba2:	08 95       	ret

00000ba4 <Dimmer_Off>:
}
void Dimmer_Off(){
	G_Dimmer_Value = 0;
     ba4:	10 92 56 06 	sts	0x0656, r1	; 0x800656 <G_Dimmer_Value>
     ba8:	08 95       	ret

00000baa <Door_Feedback>:
*/

extern uint8 door_state;// 0 is closed, 1 is open

void Door_Feedback(uint8 New_Feed){
	switch(New_Feed){
     baa:	81 30       	cpi	r24, 0x01	; 1
     bac:	a9 f0       	breq	.+42     	; 0xbd8 <Door_Feedback+0x2e>
     bae:	82 30       	cpi	r24, 0x02	; 2
     bb0:	31 f5       	brne	.+76     	; 0xbfe <Door_Feedback+0x54>
		case 2: 
			switch(door_state)
     bb2:	80 91 57 06 	lds	r24, 0x0657	; 0x800657 <door_state>
     bb6:	88 23       	and	r24, r24
     bb8:	19 f0       	breq	.+6      	; 0xbc0 <Door_Feedback+0x16>
     bba:	81 30       	cpi	r24, 0x01	; 1
     bbc:	31 f0       	breq	.+12     	; 0xbca <Door_Feedback+0x20>
     bbe:	08 95       	ret
			{
				case 0 :
					UART_Send_String_Polling_8("Door is Already Closed!");
     bc0:	89 e5       	ldi	r24, 0x59	; 89
     bc2:	93 e0       	ldi	r25, 0x03	; 3
     bc4:	0e 94 66 0d 	call	0x1acc	; 0x1acc <UART_Send_String_Polling_8>
					break;
     bc8:	08 95       	ret
				case 1:
					door_state = 0;
     bca:	10 92 57 06 	sts	0x0657, r1	; 0x800657 <door_state>
					UART_Send_String_Polling_8("Door Closed Success!");
     bce:	81 e7       	ldi	r24, 0x71	; 113
     bd0:	93 e0       	ldi	r25, 0x03	; 3
     bd2:	0e 94 66 0d 	call	0x1acc	; 0x1acc <UART_Send_String_Polling_8>
					break;
     bd6:	08 95       	ret
			}
			break;
		case 1:
			switch(door_state)
     bd8:	80 91 57 06 	lds	r24, 0x0657	; 0x800657 <door_state>
     bdc:	88 23       	and	r24, r24
     bde:	19 f0       	breq	.+6      	; 0xbe6 <Door_Feedback+0x3c>
     be0:	81 30       	cpi	r24, 0x01	; 1
     be2:	49 f0       	breq	.+18     	; 0xbf6 <Door_Feedback+0x4c>
     be4:	08 95       	ret
			{
				case 0 :
					door_state = 1;
     be6:	81 e0       	ldi	r24, 0x01	; 1
     be8:	80 93 57 06 	sts	0x0657, r24	; 0x800657 <door_state>
					UART_Send_String_Polling_8("Door Opened Success!");
     bec:	86 e8       	ldi	r24, 0x86	; 134
     bee:	93 e0       	ldi	r25, 0x03	; 3
     bf0:	0e 94 66 0d 	call	0x1acc	; 0x1acc <UART_Send_String_Polling_8>
					break;
     bf4:	08 95       	ret
				case 1:
					
					UART_Send_String_Polling_8("Door is Already Opened!");
     bf6:	8b e9       	ldi	r24, 0x9B	; 155
     bf8:	93 e0       	ldi	r25, 0x03	; 3
     bfa:	0e 94 66 0d 	call	0x1acc	; 0x1acc <UART_Send_String_Polling_8>
     bfe:	08 95       	ret

00000c00 <Servo_Init>:
}



void Servo_Init(){
	DIO_Set_Pin_Direction(PORTDx,Pin7,Out);
     c00:	41 e0       	ldi	r20, 0x01	; 1
     c02:	67 e0       	ldi	r22, 0x07	; 7
     c04:	83 e0       	ldi	r24, 0x03	; 3
     c06:	0e 94 a0 0b 	call	0x1740	; 0x1740 <DIO_Set_Pin_Direction>
	DIO_Set_Pin_Output(PORTDx,Pin7,Low);
     c0a:	40 e0       	ldi	r20, 0x00	; 0
     c0c:	67 e0       	ldi	r22, 0x07	; 7
     c0e:	83 e0       	ldi	r24, 0x03	; 3
     c10:	0e 94 10 0c 	call	0x1820	; 0x1820 <DIO_Set_Pin_Output>
	// Set the Prescaler to 8
	// Set WGM12 to enable CTC mode
	TCCR1B_Reg |= (1 << WGM12) | (1 << CS11);
     c14:	8e b5       	in	r24, 0x2e	; 46
     c16:	8a 60       	ori	r24, 0x0A	; 10
     c18:	8e bd       	out	0x2e, r24	; 46
	// Set OCR1A to generate an interrupt every 0.5 ms
	// Set TOP value for 0.5ms period
	// Set OCR1A to 1000
	OCR1AH_Reg = 0x03; // High byte 00000011
     c1a:	83 e0       	ldi	r24, 0x03	; 3
     c1c:	8b bd       	out	0x2b, r24	; 43
	OCR1AL_Reg = 0xE8; // Low byte 11101000    0000001111101000
     c1e:	88 ee       	ldi	r24, 0xE8	; 232
     c20:	8a bd       	out	0x2a, r24	; 42
	// Enable Timer/Counter1 Output Compare Match A interrupt
	TIMSK_Reg |= (1 << OCIE1A);
     c22:	89 b7       	in	r24, 0x39	; 57
     c24:	80 61       	ori	r24, 0x10	; 16
     c26:	89 bf       	out	0x39, r24	; 57
	GIE_Enable(); // Enable global interrupts
     c28:	0e 94 e4 0c 	call	0x19c8	; 0x19c8 <GIE_Enable>
     c2c:	08 95       	ret

00000c2e <EEPROM_Init>:
     c2e:	0e 94 06 0d 	call	0x1a0c	; 0x1a0c <TWI_Init>
     c32:	08 95       	ret

00000c34 <EEPROM_Read_Byte>:
     c34:	0f 93       	push	r16
     c36:	1f 93       	push	r17
     c38:	cf 93       	push	r28
     c3a:	df 93       	push	r29
     c3c:	8c 01       	movw	r16, r24
     c3e:	17 70       	andi	r17, 0x07	; 7
     c40:	12 fb       	bst	r17, 2
     c42:	cc 27       	eor	r28, r28
     c44:	c0 f9       	bld	r28, 0
     c46:	cc 0f       	add	r28, r28
     c48:	cc 0f       	add	r28, r28
     c4a:	cc 0f       	add	r28, r28
     c4c:	11 fb       	bst	r17, 1
     c4e:	88 27       	eor	r24, r24
     c50:	80 f9       	bld	r24, 0
     c52:	88 0f       	add	r24, r24
     c54:	88 0f       	add	r24, r24
     c56:	c8 2b       	or	r28, r24
     c58:	81 2f       	mov	r24, r17
     c5a:	81 70       	andi	r24, 0x01	; 1
     c5c:	88 0f       	add	r24, r24
     c5e:	c8 2b       	or	r28, r24
     c60:	c0 6a       	ori	r28, 0xA0	; 160
     c62:	d1 e0       	ldi	r29, 0x01	; 1
     c64:	dc 0f       	add	r29, r28
     c66:	0e 94 20 0d 	call	0x1a40	; 0x1a40 <TWI_MSTR_Send_Start>
     c6a:	88 e0       	ldi	r24, 0x08	; 8
     c6c:	0e 94 12 0d 	call	0x1a24	; 0x1a24 <TWI_Check_Status>
     c70:	81 30       	cpi	r24, 0x01	; 1
     c72:	31 f5       	brne	.+76     	; 0xcc0 <EEPROM_Read_Byte+0x8c>
     c74:	8c 2f       	mov	r24, r28
     c76:	0e 94 32 0d 	call	0x1a64	; 0x1a64 <TWI_Send_Data>
     c7a:	88 e1       	ldi	r24, 0x18	; 24
     c7c:	0e 94 12 0d 	call	0x1a24	; 0x1a24 <TWI_Check_Status>
     c80:	81 30       	cpi	r24, 0x01	; 1
     c82:	01 f5       	brne	.+64     	; 0xcc4 <EEPROM_Read_Byte+0x90>
     c84:	80 2f       	mov	r24, r16
     c86:	0e 94 32 0d 	call	0x1a64	; 0x1a64 <TWI_Send_Data>
     c8a:	88 e2       	ldi	r24, 0x28	; 40
     c8c:	0e 94 12 0d 	call	0x1a24	; 0x1a24 <TWI_Check_Status>
     c90:	81 30       	cpi	r24, 0x01	; 1
     c92:	d1 f4       	brne	.+52     	; 0xcc8 <EEPROM_Read_Byte+0x94>
     c94:	0e 94 20 0d 	call	0x1a40	; 0x1a40 <TWI_MSTR_Send_Start>
     c98:	80 e1       	ldi	r24, 0x10	; 16
     c9a:	0e 94 12 0d 	call	0x1a24	; 0x1a24 <TWI_Check_Status>
     c9e:	81 30       	cpi	r24, 0x01	; 1
     ca0:	a9 f4       	brne	.+42     	; 0xccc <EEPROM_Read_Byte+0x98>
     ca2:	8d 2f       	mov	r24, r29
     ca4:	0e 94 32 0d 	call	0x1a64	; 0x1a64 <TWI_Send_Data>
     ca8:	80 e4       	ldi	r24, 0x40	; 64
     caa:	0e 94 12 0d 	call	0x1a24	; 0x1a24 <TWI_Check_Status>
     cae:	81 30       	cpi	r24, 0x01	; 1
     cb0:	79 f4       	brne	.+30     	; 0xcd0 <EEPROM_Read_Byte+0x9c>
     cb2:	80 e0       	ldi	r24, 0x00	; 0
     cb4:	0e 94 26 0d 	call	0x1a4c	; 0x1a4c <TWI_Receive_Data>
     cb8:	c8 2f       	mov	r28, r24
     cba:	0e 94 1d 0d 	call	0x1a3a	; 0x1a3a <TWI_Send_Stop>
     cbe:	09 c0       	rjmp	.+18     	; 0xcd2 <EEPROM_Read_Byte+0x9e>
     cc0:	c0 e0       	ldi	r28, 0x00	; 0
     cc2:	07 c0       	rjmp	.+14     	; 0xcd2 <EEPROM_Read_Byte+0x9e>
     cc4:	c0 e0       	ldi	r28, 0x00	; 0
     cc6:	05 c0       	rjmp	.+10     	; 0xcd2 <EEPROM_Read_Byte+0x9e>
     cc8:	c0 e0       	ldi	r28, 0x00	; 0
     cca:	03 c0       	rjmp	.+6      	; 0xcd2 <EEPROM_Read_Byte+0x9e>
     ccc:	c0 e0       	ldi	r28, 0x00	; 0
     cce:	01 c0       	rjmp	.+2      	; 0xcd2 <EEPROM_Read_Byte+0x9e>
     cd0:	c0 e0       	ldi	r28, 0x00	; 0
     cd2:	8f e5       	ldi	r24, 0x5F	; 95
     cd4:	9d e6       	ldi	r25, 0x6D	; 109
     cd6:	01 97       	sbiw	r24, 0x01	; 1
     cd8:	f1 f7       	brne	.-4      	; 0xcd6 <EEPROM_Read_Byte+0xa2>
     cda:	00 c0       	rjmp	.+0      	; 0xcdc <EEPROM_Read_Byte+0xa8>
     cdc:	00 00       	nop
     cde:	8c 2f       	mov	r24, r28
     ce0:	df 91       	pop	r29
     ce2:	cf 91       	pop	r28
     ce4:	1f 91       	pop	r17
     ce6:	0f 91       	pop	r16
     ce8:	08 95       	ret

00000cea <EEPROM_Write_Byte>:
     cea:	1f 93       	push	r17
     cec:	cf 93       	push	r28
     cee:	df 93       	push	r29
     cf0:	d8 2f       	mov	r29, r24
     cf2:	16 2f       	mov	r17, r22
     cf4:	92 fb       	bst	r25, 2
     cf6:	88 27       	eor	r24, r24
     cf8:	80 f9       	bld	r24, 0
     cfa:	28 2f       	mov	r18, r24
     cfc:	22 0f       	add	r18, r18
     cfe:	22 0f       	add	r18, r18
     d00:	22 0f       	add	r18, r18
     d02:	91 fb       	bst	r25, 1
     d04:	88 27       	eor	r24, r24
     d06:	80 f9       	bld	r24, 0
     d08:	88 0f       	add	r24, r24
     d0a:	88 0f       	add	r24, r24
     d0c:	82 2b       	or	r24, r18
     d0e:	91 70       	andi	r25, 0x01	; 1
     d10:	99 0f       	add	r25, r25
     d12:	98 2b       	or	r25, r24
     d14:	c9 2f       	mov	r28, r25
     d16:	c0 6a       	ori	r28, 0xA0	; 160
     d18:	0e 94 20 0d 	call	0x1a40	; 0x1a40 <TWI_MSTR_Send_Start>
     d1c:	88 e0       	ldi	r24, 0x08	; 8
     d1e:	0e 94 12 0d 	call	0x1a24	; 0x1a24 <TWI_Check_Status>
     d22:	81 30       	cpi	r24, 0x01	; 1
     d24:	01 f5       	brne	.+64     	; 0xd66 <EEPROM_Write_Byte+0x7c>
     d26:	8c 2f       	mov	r24, r28
     d28:	0e 94 32 0d 	call	0x1a64	; 0x1a64 <TWI_Send_Data>
     d2c:	88 e1       	ldi	r24, 0x18	; 24
     d2e:	0e 94 12 0d 	call	0x1a24	; 0x1a24 <TWI_Check_Status>
     d32:	81 30       	cpi	r24, 0x01	; 1
     d34:	c1 f4       	brne	.+48     	; 0xd66 <EEPROM_Write_Byte+0x7c>
     d36:	8d 2f       	mov	r24, r29
     d38:	0e 94 32 0d 	call	0x1a64	; 0x1a64 <TWI_Send_Data>
     d3c:	88 e2       	ldi	r24, 0x28	; 40
     d3e:	0e 94 12 0d 	call	0x1a24	; 0x1a24 <TWI_Check_Status>
     d42:	88 23       	and	r24, r24
     d44:	81 f0       	breq	.+32     	; 0xd66 <EEPROM_Write_Byte+0x7c>
     d46:	81 2f       	mov	r24, r17
     d48:	0e 94 32 0d 	call	0x1a64	; 0x1a64 <TWI_Send_Data>
     d4c:	88 e2       	ldi	r24, 0x28	; 40
     d4e:	0e 94 12 0d 	call	0x1a24	; 0x1a24 <TWI_Check_Status>
     d52:	88 23       	and	r24, r24
     d54:	41 f0       	breq	.+16     	; 0xd66 <EEPROM_Write_Byte+0x7c>
     d56:	0e 94 1d 0d 	call	0x1a3a	; 0x1a3a <TWI_Send_Stop>
     d5a:	8f e5       	ldi	r24, 0x5F	; 95
     d5c:	9d e6       	ldi	r25, 0x6D	; 109
     d5e:	01 97       	sbiw	r24, 0x01	; 1
     d60:	f1 f7       	brne	.-4      	; 0xd5e <EEPROM_Write_Byte+0x74>
     d62:	00 c0       	rjmp	.+0      	; 0xd64 <EEPROM_Write_Byte+0x7a>
     d64:	00 00       	nop
     d66:	df 91       	pop	r29
     d68:	cf 91       	pop	r28
     d6a:	1f 91       	pop	r17
     d6c:	08 95       	ret

00000d6e <EEPROM_Write_String>:
     d6e:	ef 92       	push	r14
     d70:	ff 92       	push	r15
     d72:	0f 93       	push	r16
     d74:	1f 93       	push	r17
     d76:	cf 93       	push	r28
     d78:	8c 01       	movw	r16, r24
     d7a:	7b 01       	movw	r14, r22
     d7c:	c0 e0       	ldi	r28, 0x00	; 0
     d7e:	05 c0       	rjmp	.+10     	; 0xd8a <EEPROM_Write_String+0x1c>
     d80:	80 0f       	add	r24, r16
     d82:	91 1f       	adc	r25, r17
     d84:	0e 94 75 06 	call	0xcea	; 0xcea <EEPROM_Write_Byte>
     d88:	cf 5f       	subi	r28, 0xFF	; 255
     d8a:	8c 2f       	mov	r24, r28
     d8c:	90 e0       	ldi	r25, 0x00	; 0
     d8e:	f7 01       	movw	r30, r14
     d90:	e8 0f       	add	r30, r24
     d92:	f9 1f       	adc	r31, r25
     d94:	60 81       	ld	r22, Z
     d96:	61 11       	cpse	r22, r1
     d98:	f3 cf       	rjmp	.-26     	; 0xd80 <EEPROM_Write_String+0x12>
     d9a:	80 0f       	add	r24, r16
     d9c:	91 1f       	adc	r25, r17
     d9e:	01 96       	adiw	r24, 0x01	; 1
     da0:	0e 94 75 06 	call	0xcea	; 0xcea <EEPROM_Write_Byte>
     da4:	cf 91       	pop	r28
     da6:	1f 91       	pop	r17
     da8:	0f 91       	pop	r16
     daa:	ff 90       	pop	r15
     dac:	ef 90       	pop	r14
     dae:	08 95       	ret

00000db0 <EEPROM_Read_String>:
     db0:	cf 92       	push	r12
     db2:	df 92       	push	r13
     db4:	ef 92       	push	r14
     db6:	ff 92       	push	r15
     db8:	0f 93       	push	r16
     dba:	1f 93       	push	r17
     dbc:	cf 93       	push	r28
     dbe:	6c 01       	movw	r12, r24
     dc0:	8b 01       	movw	r16, r22
     dc2:	0e 94 1a 06 	call	0xc34	; 0xc34 <EEPROM_Read_Byte>
     dc6:	f8 01       	movw	r30, r16
     dc8:	80 83       	st	Z, r24
     dca:	c0 e0       	ldi	r28, 0x00	; 0
     dcc:	0c c0       	rjmp	.+24     	; 0xde6 <EEPROM_Read_String+0x36>
     dce:	cf 5f       	subi	r28, 0xFF	; 255
     dd0:	8c 2f       	mov	r24, r28
     dd2:	90 e0       	ldi	r25, 0x00	; 0
     dd4:	78 01       	movw	r14, r16
     dd6:	e8 0e       	add	r14, r24
     dd8:	f9 1e       	adc	r15, r25
     dda:	8c 0d       	add	r24, r12
     ddc:	9d 1d       	adc	r25, r13
     dde:	0e 94 1a 06 	call	0xc34	; 0xc34 <EEPROM_Read_Byte>
     de2:	f7 01       	movw	r30, r14
     de4:	80 83       	st	Z, r24
     de6:	f8 01       	movw	r30, r16
     de8:	ec 0f       	add	r30, r28
     dea:	f1 1d       	adc	r31, r1
     dec:	80 81       	ld	r24, Z
     dee:	81 11       	cpse	r24, r1
     df0:	ee cf       	rjmp	.-36     	; 0xdce <EEPROM_Read_String+0x1e>
     df2:	cf 91       	pop	r28
     df4:	1f 91       	pop	r17
     df6:	0f 91       	pop	r16
     df8:	ff 90       	pop	r15
     dfa:	ef 90       	pop	r14
     dfc:	df 90       	pop	r13
     dfe:	cf 90       	pop	r12
     e00:	08 95       	ret

00000e02 <EEPROM_Read_8Data>:
     e02:	83 36       	cpi	r24, 0x63	; 99
     e04:	31 f0       	breq	.+12     	; 0xe12 <EEPROM_Read_8Data+0x10>
     e06:	24 e1       	ldi	r18, 0x14	; 20
     e08:	82 9f       	mul	r24, r18
     e0a:	c0 01       	movw	r24, r0
     e0c:	11 24       	eor	r1, r1
     e0e:	0a 96       	adiw	r24, 0x0a	; 10
     e10:	02 c0       	rjmp	.+4      	; 0xe16 <EEPROM_Read_8Data+0x14>
     e12:	8a e0       	ldi	r24, 0x0A	; 10
     e14:	90 e0       	ldi	r25, 0x00	; 0
     e16:	41 30       	cpi	r20, 0x01	; 1
     e18:	19 f0       	breq	.+6      	; 0xe20 <EEPROM_Read_8Data+0x1e>
     e1a:	42 30       	cpi	r20, 0x02	; 2
     e1c:	29 f0       	breq	.+10     	; 0xe28 <EEPROM_Read_8Data+0x26>
     e1e:	08 95       	ret
     e20:	01 96       	adiw	r24, 0x01	; 1
     e22:	0e 94 d8 06 	call	0xdb0	; 0xdb0 <EEPROM_Read_String>
     e26:	08 95       	ret
     e28:	0a 96       	adiw	r24, 0x0a	; 10
     e2a:	0e 94 d8 06 	call	0xdb0	; 0xdb0 <EEPROM_Read_String>
     e2e:	08 95       	ret

00000e30 <EEPROM_Read_UserID_Exist>:
     e30:	83 36       	cpi	r24, 0x63	; 99
     e32:	31 f0       	breq	.+12     	; 0xe40 <EEPROM_Read_UserID_Exist+0x10>
     e34:	24 e1       	ldi	r18, 0x14	; 20
     e36:	82 9f       	mul	r24, r18
     e38:	c0 01       	movw	r24, r0
     e3a:	11 24       	eor	r1, r1
     e3c:	0a 96       	adiw	r24, 0x0a	; 10
     e3e:	02 c0       	rjmp	.+4      	; 0xe44 <EEPROM_Read_UserID_Exist+0x14>
     e40:	8a e0       	ldi	r24, 0x0A	; 10
     e42:	90 e0       	ldi	r25, 0x00	; 0
     e44:	0e 94 1a 06 	call	0xc34	; 0xc34 <EEPROM_Read_Byte>
     e48:	08 95       	ret

00000e4a <EEPROM_Delete_User>:
     e4a:	24 e1       	ldi	r18, 0x14	; 20
     e4c:	82 9f       	mul	r24, r18
     e4e:	c0 01       	movw	r24, r0
     e50:	11 24       	eor	r1, r1
     e52:	60 e0       	ldi	r22, 0x00	; 0
     e54:	0a 96       	adiw	r24, 0x0a	; 10
     e56:	0e 94 75 06 	call	0xcea	; 0xcea <EEPROM_Write_Byte>
     e5a:	08 95       	ret

00000e5c <EEPROM_Find_Empty_ID>:
     e5c:	1f 93       	push	r17
     e5e:	cf 93       	push	r28
     e60:	df 93       	push	r29
     e62:	c0 e0       	ldi	r28, 0x00	; 0
     e64:	d0 e0       	ldi	r29, 0x00	; 0
     e66:	07 c0       	rjmp	.+14     	; 0xe76 <EEPROM_Find_Empty_ID+0x1a>
     e68:	1c 2f       	mov	r17, r28
     e6a:	8c 2f       	mov	r24, r28
     e6c:	0e 94 18 07 	call	0xe30	; 0xe30 <EEPROM_Read_UserID_Exist>
     e70:	88 23       	and	r24, r24
     e72:	41 f0       	breq	.+16     	; 0xe84 <EEPROM_Find_Empty_ID+0x28>
     e74:	21 96       	adiw	r28, 0x01	; 1
     e76:	80 91 65 00 	lds	r24, 0x0065	; 0x800065 <MAX_Users_Count>
     e7a:	90 e0       	ldi	r25, 0x00	; 0
     e7c:	c8 17       	cp	r28, r24
     e7e:	d9 07       	cpc	r29, r25
     e80:	9c f3       	brlt	.-26     	; 0xe68 <EEPROM_Find_Empty_ID+0xc>
     e82:	10 e0       	ldi	r17, 0x00	; 0
     e84:	81 2f       	mov	r24, r17
     e86:	df 91       	pop	r29
     e88:	cf 91       	pop	r28
     e8a:	1f 91       	pop	r17
     e8c:	08 95       	ret

00000e8e <EEPROM_Reg_New_User>:
     e8e:	ef 92       	push	r14
     e90:	ff 92       	push	r15
     e92:	0f 93       	push	r16
     e94:	1f 93       	push	r17
     e96:	cf 93       	push	r28
     e98:	df 93       	push	r29
     e9a:	8b 01       	movw	r16, r22
     e9c:	7a 01       	movw	r14, r20
     e9e:	94 e1       	ldi	r25, 0x14	; 20
     ea0:	89 9f       	mul	r24, r25
     ea2:	e0 01       	movw	r28, r0
     ea4:	11 24       	eor	r1, r1
     ea6:	68 2f       	mov	r22, r24
     ea8:	ce 01       	movw	r24, r28
     eaa:	0a 96       	adiw	r24, 0x0a	; 10
     eac:	0e 94 75 06 	call	0xcea	; 0xcea <EEPROM_Write_Byte>
     eb0:	b7 01       	movw	r22, r14
     eb2:	ce 01       	movw	r24, r28
     eb4:	0b 96       	adiw	r24, 0x0b	; 11
     eb6:	0e 94 b7 06 	call	0xd6e	; 0xd6e <EEPROM_Write_String>
     eba:	b8 01       	movw	r22, r16
     ebc:	ce 01       	movw	r24, r28
     ebe:	44 96       	adiw	r24, 0x14	; 20
     ec0:	0e 94 b7 06 	call	0xd6e	; 0xd6e <EEPROM_Write_String>
     ec4:	df 91       	pop	r29
     ec6:	cf 91       	pop	r28
     ec8:	1f 91       	pop	r17
     eca:	0f 91       	pop	r16
     ecc:	ff 90       	pop	r15
     ece:	ef 90       	pop	r14
     ed0:	08 95       	ret

00000ed2 <KEYPAD_Initialization>:
     ed2:	41 e0       	ldi	r20, 0x01	; 1
     ed4:	64 e0       	ldi	r22, 0x04	; 4
     ed6:	81 e0       	ldi	r24, 0x01	; 1
     ed8:	0e 94 a0 0b 	call	0x1740	; 0x1740 <DIO_Set_Pin_Direction>
     edc:	41 e0       	ldi	r20, 0x01	; 1
     ede:	65 e0       	ldi	r22, 0x05	; 5
     ee0:	81 e0       	ldi	r24, 0x01	; 1
     ee2:	0e 94 a0 0b 	call	0x1740	; 0x1740 <DIO_Set_Pin_Direction>
     ee6:	41 e0       	ldi	r20, 0x01	; 1
     ee8:	66 e0       	ldi	r22, 0x06	; 6
     eea:	81 e0       	ldi	r24, 0x01	; 1
     eec:	0e 94 a0 0b 	call	0x1740	; 0x1740 <DIO_Set_Pin_Direction>
     ef0:	41 e0       	ldi	r20, 0x01	; 1
     ef2:	67 e0       	ldi	r22, 0x07	; 7
     ef4:	81 e0       	ldi	r24, 0x01	; 1
     ef6:	0e 94 a0 0b 	call	0x1740	; 0x1740 <DIO_Set_Pin_Direction>
     efa:	40 e0       	ldi	r20, 0x00	; 0
     efc:	63 e0       	ldi	r22, 0x03	; 3
     efe:	82 e0       	ldi	r24, 0x02	; 2
     f00:	0e 94 a0 0b 	call	0x1740	; 0x1740 <DIO_Set_Pin_Direction>
     f04:	40 e0       	ldi	r20, 0x00	; 0
     f06:	64 e0       	ldi	r22, 0x04	; 4
     f08:	82 e0       	ldi	r24, 0x02	; 2
     f0a:	0e 94 a0 0b 	call	0x1740	; 0x1740 <DIO_Set_Pin_Direction>
     f0e:	40 e0       	ldi	r20, 0x00	; 0
     f10:	65 e0       	ldi	r22, 0x05	; 5
     f12:	82 e0       	ldi	r24, 0x02	; 2
     f14:	0e 94 a0 0b 	call	0x1740	; 0x1740 <DIO_Set_Pin_Direction>
     f18:	40 e0       	ldi	r20, 0x00	; 0
     f1a:	66 e0       	ldi	r22, 0x06	; 6
     f1c:	82 e0       	ldi	r24, 0x02	; 2
     f1e:	0e 94 a0 0b 	call	0x1740	; 0x1740 <DIO_Set_Pin_Direction>
     f22:	41 e0       	ldi	r20, 0x01	; 1
     f24:	64 e0       	ldi	r22, 0x04	; 4
     f26:	81 e0       	ldi	r24, 0x01	; 1
     f28:	0e 94 10 0c 	call	0x1820	; 0x1820 <DIO_Set_Pin_Output>
     f2c:	41 e0       	ldi	r20, 0x01	; 1
     f2e:	65 e0       	ldi	r22, 0x05	; 5
     f30:	81 e0       	ldi	r24, 0x01	; 1
     f32:	0e 94 10 0c 	call	0x1820	; 0x1820 <DIO_Set_Pin_Output>
     f36:	41 e0       	ldi	r20, 0x01	; 1
     f38:	66 e0       	ldi	r22, 0x06	; 6
     f3a:	81 e0       	ldi	r24, 0x01	; 1
     f3c:	0e 94 10 0c 	call	0x1820	; 0x1820 <DIO_Set_Pin_Output>
     f40:	41 e0       	ldi	r20, 0x01	; 1
     f42:	67 e0       	ldi	r22, 0x07	; 7
     f44:	81 e0       	ldi	r24, 0x01	; 1
     f46:	0e 94 10 0c 	call	0x1820	; 0x1820 <DIO_Set_Pin_Output>
     f4a:	41 e0       	ldi	r20, 0x01	; 1
     f4c:	63 e0       	ldi	r22, 0x03	; 3
     f4e:	82 e0       	ldi	r24, 0x02	; 2
     f50:	0e 94 10 0c 	call	0x1820	; 0x1820 <DIO_Set_Pin_Output>
     f54:	41 e0       	ldi	r20, 0x01	; 1
     f56:	64 e0       	ldi	r22, 0x04	; 4
     f58:	82 e0       	ldi	r24, 0x02	; 2
     f5a:	0e 94 10 0c 	call	0x1820	; 0x1820 <DIO_Set_Pin_Output>
     f5e:	41 e0       	ldi	r20, 0x01	; 1
     f60:	65 e0       	ldi	r22, 0x05	; 5
     f62:	82 e0       	ldi	r24, 0x02	; 2
     f64:	0e 94 10 0c 	call	0x1820	; 0x1820 <DIO_Set_Pin_Output>
     f68:	41 e0       	ldi	r20, 0x01	; 1
     f6a:	66 e0       	ldi	r22, 0x06	; 6
     f6c:	82 e0       	ldi	r24, 0x02	; 2
     f6e:	0e 94 10 0c 	call	0x1820	; 0x1820 <DIO_Set_Pin_Output>
     f72:	08 95       	ret

00000f74 <KEYPAD_Get_Pressed_Key>:
     f74:	cf 93       	push	r28
     f76:	40 e0       	ldi	r20, 0x00	; 0
     f78:	64 e0       	ldi	r22, 0x04	; 4
     f7a:	81 e0       	ldi	r24, 0x01	; 1
     f7c:	0e 94 10 0c 	call	0x1820	; 0x1820 <DIO_Set_Pin_Output>
     f80:	41 e0       	ldi	r20, 0x01	; 1
     f82:	65 e0       	ldi	r22, 0x05	; 5
     f84:	81 e0       	ldi	r24, 0x01	; 1
     f86:	0e 94 10 0c 	call	0x1820	; 0x1820 <DIO_Set_Pin_Output>
     f8a:	41 e0       	ldi	r20, 0x01	; 1
     f8c:	66 e0       	ldi	r22, 0x06	; 6
     f8e:	81 e0       	ldi	r24, 0x01	; 1
     f90:	0e 94 10 0c 	call	0x1820	; 0x1820 <DIO_Set_Pin_Output>
     f94:	41 e0       	ldi	r20, 0x01	; 1
     f96:	67 e0       	ldi	r22, 0x07	; 7
     f98:	81 e0       	ldi	r24, 0x01	; 1
     f9a:	0e 94 10 0c 	call	0x1820	; 0x1820 <DIO_Set_Pin_Output>
     f9e:	63 e0       	ldi	r22, 0x03	; 3
     fa0:	82 e0       	ldi	r24, 0x02	; 2
     fa2:	0e 94 b6 0c 	call	0x196c	; 0x196c <DIO_Get_Pin_Value>
     fa6:	81 11       	cpse	r24, r1
     fa8:	08 c0       	rjmp	.+16     	; 0xfba <KEYPAD_Get_Pressed_Key+0x46>
     faa:	63 e0       	ldi	r22, 0x03	; 3
     fac:	82 e0       	ldi	r24, 0x02	; 2
     fae:	0e 94 b6 0c 	call	0x196c	; 0x196c <DIO_Get_Pin_Value>
     fb2:	88 23       	and	r24, r24
     fb4:	d1 f3       	breq	.-12     	; 0xfaa <KEYPAD_Get_Pressed_Key+0x36>
     fb6:	c1 e3       	ldi	r28, 0x31	; 49
     fb8:	2b c0       	rjmp	.+86     	; 0x1010 <KEYPAD_Get_Pressed_Key+0x9c>
     fba:	64 e0       	ldi	r22, 0x04	; 4
     fbc:	82 e0       	ldi	r24, 0x02	; 2
     fbe:	0e 94 b6 0c 	call	0x196c	; 0x196c <DIO_Get_Pin_Value>
     fc2:	81 11       	cpse	r24, r1
     fc4:	08 c0       	rjmp	.+16     	; 0xfd6 <KEYPAD_Get_Pressed_Key+0x62>
     fc6:	64 e0       	ldi	r22, 0x04	; 4
     fc8:	82 e0       	ldi	r24, 0x02	; 2
     fca:	0e 94 b6 0c 	call	0x196c	; 0x196c <DIO_Get_Pin_Value>
     fce:	88 23       	and	r24, r24
     fd0:	d1 f3       	breq	.-12     	; 0xfc6 <KEYPAD_Get_Pressed_Key+0x52>
     fd2:	c4 e3       	ldi	r28, 0x34	; 52
     fd4:	1d c0       	rjmp	.+58     	; 0x1010 <KEYPAD_Get_Pressed_Key+0x9c>
     fd6:	65 e0       	ldi	r22, 0x05	; 5
     fd8:	82 e0       	ldi	r24, 0x02	; 2
     fda:	0e 94 b6 0c 	call	0x196c	; 0x196c <DIO_Get_Pin_Value>
     fde:	81 11       	cpse	r24, r1
     fe0:	08 c0       	rjmp	.+16     	; 0xff2 <KEYPAD_Get_Pressed_Key+0x7e>
     fe2:	65 e0       	ldi	r22, 0x05	; 5
     fe4:	82 e0       	ldi	r24, 0x02	; 2
     fe6:	0e 94 b6 0c 	call	0x196c	; 0x196c <DIO_Get_Pin_Value>
     fea:	88 23       	and	r24, r24
     fec:	d1 f3       	breq	.-12     	; 0xfe2 <KEYPAD_Get_Pressed_Key+0x6e>
     fee:	c7 e3       	ldi	r28, 0x37	; 55
     ff0:	0f c0       	rjmp	.+30     	; 0x1010 <KEYPAD_Get_Pressed_Key+0x9c>
     ff2:	66 e0       	ldi	r22, 0x06	; 6
     ff4:	82 e0       	ldi	r24, 0x02	; 2
     ff6:	0e 94 b6 0c 	call	0x196c	; 0x196c <DIO_Get_Pin_Value>
     ffa:	81 11       	cpse	r24, r1
     ffc:	08 c0       	rjmp	.+16     	; 0x100e <KEYPAD_Get_Pressed_Key+0x9a>
     ffe:	66 e0       	ldi	r22, 0x06	; 6
    1000:	82 e0       	ldi	r24, 0x02	; 2
    1002:	0e 94 b6 0c 	call	0x196c	; 0x196c <DIO_Get_Pin_Value>
    1006:	88 23       	and	r24, r24
    1008:	d1 f3       	breq	.-12     	; 0xffe <KEYPAD_Get_Pressed_Key+0x8a>
    100a:	ca e2       	ldi	r28, 0x2A	; 42
    100c:	01 c0       	rjmp	.+2      	; 0x1010 <KEYPAD_Get_Pressed_Key+0x9c>
    100e:	c0 e0       	ldi	r28, 0x00	; 0
    1010:	41 e0       	ldi	r20, 0x01	; 1
    1012:	64 e0       	ldi	r22, 0x04	; 4
    1014:	81 e0       	ldi	r24, 0x01	; 1
    1016:	0e 94 10 0c 	call	0x1820	; 0x1820 <DIO_Set_Pin_Output>
    101a:	40 e0       	ldi	r20, 0x00	; 0
    101c:	65 e0       	ldi	r22, 0x05	; 5
    101e:	81 e0       	ldi	r24, 0x01	; 1
    1020:	0e 94 10 0c 	call	0x1820	; 0x1820 <DIO_Set_Pin_Output>
    1024:	41 e0       	ldi	r20, 0x01	; 1
    1026:	66 e0       	ldi	r22, 0x06	; 6
    1028:	81 e0       	ldi	r24, 0x01	; 1
    102a:	0e 94 10 0c 	call	0x1820	; 0x1820 <DIO_Set_Pin_Output>
    102e:	41 e0       	ldi	r20, 0x01	; 1
    1030:	67 e0       	ldi	r22, 0x07	; 7
    1032:	81 e0       	ldi	r24, 0x01	; 1
    1034:	0e 94 10 0c 	call	0x1820	; 0x1820 <DIO_Set_Pin_Output>
    1038:	63 e0       	ldi	r22, 0x03	; 3
    103a:	82 e0       	ldi	r24, 0x02	; 2
    103c:	0e 94 b6 0c 	call	0x196c	; 0x196c <DIO_Get_Pin_Value>
    1040:	81 11       	cpse	r24, r1
    1042:	08 c0       	rjmp	.+16     	; 0x1054 <KEYPAD_Get_Pressed_Key+0xe0>
    1044:	63 e0       	ldi	r22, 0x03	; 3
    1046:	82 e0       	ldi	r24, 0x02	; 2
    1048:	0e 94 b6 0c 	call	0x196c	; 0x196c <DIO_Get_Pin_Value>
    104c:	88 23       	and	r24, r24
    104e:	d1 f3       	breq	.-12     	; 0x1044 <KEYPAD_Get_Pressed_Key+0xd0>
    1050:	c2 e3       	ldi	r28, 0x32	; 50
    1052:	29 c0       	rjmp	.+82     	; 0x10a6 <KEYPAD_Get_Pressed_Key+0x132>
    1054:	64 e0       	ldi	r22, 0x04	; 4
    1056:	82 e0       	ldi	r24, 0x02	; 2
    1058:	0e 94 b6 0c 	call	0x196c	; 0x196c <DIO_Get_Pin_Value>
    105c:	81 11       	cpse	r24, r1
    105e:	08 c0       	rjmp	.+16     	; 0x1070 <KEYPAD_Get_Pressed_Key+0xfc>
    1060:	64 e0       	ldi	r22, 0x04	; 4
    1062:	82 e0       	ldi	r24, 0x02	; 2
    1064:	0e 94 b6 0c 	call	0x196c	; 0x196c <DIO_Get_Pin_Value>
    1068:	88 23       	and	r24, r24
    106a:	d1 f3       	breq	.-12     	; 0x1060 <KEYPAD_Get_Pressed_Key+0xec>
    106c:	c5 e3       	ldi	r28, 0x35	; 53
    106e:	1b c0       	rjmp	.+54     	; 0x10a6 <KEYPAD_Get_Pressed_Key+0x132>
    1070:	65 e0       	ldi	r22, 0x05	; 5
    1072:	82 e0       	ldi	r24, 0x02	; 2
    1074:	0e 94 b6 0c 	call	0x196c	; 0x196c <DIO_Get_Pin_Value>
    1078:	81 11       	cpse	r24, r1
    107a:	08 c0       	rjmp	.+16     	; 0x108c <KEYPAD_Get_Pressed_Key+0x118>
    107c:	65 e0       	ldi	r22, 0x05	; 5
    107e:	82 e0       	ldi	r24, 0x02	; 2
    1080:	0e 94 b6 0c 	call	0x196c	; 0x196c <DIO_Get_Pin_Value>
    1084:	88 23       	and	r24, r24
    1086:	d1 f3       	breq	.-12     	; 0x107c <KEYPAD_Get_Pressed_Key+0x108>
    1088:	c8 e3       	ldi	r28, 0x38	; 56
    108a:	0d c0       	rjmp	.+26     	; 0x10a6 <KEYPAD_Get_Pressed_Key+0x132>
    108c:	66 e0       	ldi	r22, 0x06	; 6
    108e:	82 e0       	ldi	r24, 0x02	; 2
    1090:	0e 94 b6 0c 	call	0x196c	; 0x196c <DIO_Get_Pin_Value>
    1094:	81 11       	cpse	r24, r1
    1096:	07 c0       	rjmp	.+14     	; 0x10a6 <KEYPAD_Get_Pressed_Key+0x132>
    1098:	66 e0       	ldi	r22, 0x06	; 6
    109a:	82 e0       	ldi	r24, 0x02	; 2
    109c:	0e 94 b6 0c 	call	0x196c	; 0x196c <DIO_Get_Pin_Value>
    10a0:	88 23       	and	r24, r24
    10a2:	d1 f3       	breq	.-12     	; 0x1098 <KEYPAD_Get_Pressed_Key+0x124>
    10a4:	c0 e3       	ldi	r28, 0x30	; 48
    10a6:	41 e0       	ldi	r20, 0x01	; 1
    10a8:	64 e0       	ldi	r22, 0x04	; 4
    10aa:	81 e0       	ldi	r24, 0x01	; 1
    10ac:	0e 94 10 0c 	call	0x1820	; 0x1820 <DIO_Set_Pin_Output>
    10b0:	41 e0       	ldi	r20, 0x01	; 1
    10b2:	65 e0       	ldi	r22, 0x05	; 5
    10b4:	81 e0       	ldi	r24, 0x01	; 1
    10b6:	0e 94 10 0c 	call	0x1820	; 0x1820 <DIO_Set_Pin_Output>
    10ba:	40 e0       	ldi	r20, 0x00	; 0
    10bc:	66 e0       	ldi	r22, 0x06	; 6
    10be:	81 e0       	ldi	r24, 0x01	; 1
    10c0:	0e 94 10 0c 	call	0x1820	; 0x1820 <DIO_Set_Pin_Output>
    10c4:	41 e0       	ldi	r20, 0x01	; 1
    10c6:	67 e0       	ldi	r22, 0x07	; 7
    10c8:	81 e0       	ldi	r24, 0x01	; 1
    10ca:	0e 94 10 0c 	call	0x1820	; 0x1820 <DIO_Set_Pin_Output>
    10ce:	63 e0       	ldi	r22, 0x03	; 3
    10d0:	82 e0       	ldi	r24, 0x02	; 2
    10d2:	0e 94 b6 0c 	call	0x196c	; 0x196c <DIO_Get_Pin_Value>
    10d6:	81 11       	cpse	r24, r1
    10d8:	08 c0       	rjmp	.+16     	; 0x10ea <KEYPAD_Get_Pressed_Key+0x176>
    10da:	63 e0       	ldi	r22, 0x03	; 3
    10dc:	82 e0       	ldi	r24, 0x02	; 2
    10de:	0e 94 b6 0c 	call	0x196c	; 0x196c <DIO_Get_Pin_Value>
    10e2:	88 23       	and	r24, r24
    10e4:	d1 f3       	breq	.-12     	; 0x10da <KEYPAD_Get_Pressed_Key+0x166>
    10e6:	c3 e3       	ldi	r28, 0x33	; 51
    10e8:	29 c0       	rjmp	.+82     	; 0x113c <KEYPAD_Get_Pressed_Key+0x1c8>
    10ea:	64 e0       	ldi	r22, 0x04	; 4
    10ec:	82 e0       	ldi	r24, 0x02	; 2
    10ee:	0e 94 b6 0c 	call	0x196c	; 0x196c <DIO_Get_Pin_Value>
    10f2:	81 11       	cpse	r24, r1
    10f4:	08 c0       	rjmp	.+16     	; 0x1106 <KEYPAD_Get_Pressed_Key+0x192>
    10f6:	64 e0       	ldi	r22, 0x04	; 4
    10f8:	82 e0       	ldi	r24, 0x02	; 2
    10fa:	0e 94 b6 0c 	call	0x196c	; 0x196c <DIO_Get_Pin_Value>
    10fe:	88 23       	and	r24, r24
    1100:	d1 f3       	breq	.-12     	; 0x10f6 <KEYPAD_Get_Pressed_Key+0x182>
    1102:	c6 e3       	ldi	r28, 0x36	; 54
    1104:	1b c0       	rjmp	.+54     	; 0x113c <KEYPAD_Get_Pressed_Key+0x1c8>
    1106:	65 e0       	ldi	r22, 0x05	; 5
    1108:	82 e0       	ldi	r24, 0x02	; 2
    110a:	0e 94 b6 0c 	call	0x196c	; 0x196c <DIO_Get_Pin_Value>
    110e:	81 11       	cpse	r24, r1
    1110:	08 c0       	rjmp	.+16     	; 0x1122 <KEYPAD_Get_Pressed_Key+0x1ae>
    1112:	65 e0       	ldi	r22, 0x05	; 5
    1114:	82 e0       	ldi	r24, 0x02	; 2
    1116:	0e 94 b6 0c 	call	0x196c	; 0x196c <DIO_Get_Pin_Value>
    111a:	88 23       	and	r24, r24
    111c:	d1 f3       	breq	.-12     	; 0x1112 <KEYPAD_Get_Pressed_Key+0x19e>
    111e:	c9 e3       	ldi	r28, 0x39	; 57
    1120:	0d c0       	rjmp	.+26     	; 0x113c <KEYPAD_Get_Pressed_Key+0x1c8>
    1122:	66 e0       	ldi	r22, 0x06	; 6
    1124:	82 e0       	ldi	r24, 0x02	; 2
    1126:	0e 94 b6 0c 	call	0x196c	; 0x196c <DIO_Get_Pin_Value>
    112a:	81 11       	cpse	r24, r1
    112c:	07 c0       	rjmp	.+14     	; 0x113c <KEYPAD_Get_Pressed_Key+0x1c8>
    112e:	66 e0       	ldi	r22, 0x06	; 6
    1130:	82 e0       	ldi	r24, 0x02	; 2
    1132:	0e 94 b6 0c 	call	0x196c	; 0x196c <DIO_Get_Pin_Value>
    1136:	88 23       	and	r24, r24
    1138:	d1 f3       	breq	.-12     	; 0x112e <KEYPAD_Get_Pressed_Key+0x1ba>
    113a:	c3 e2       	ldi	r28, 0x23	; 35
    113c:	41 e0       	ldi	r20, 0x01	; 1
    113e:	64 e0       	ldi	r22, 0x04	; 4
    1140:	81 e0       	ldi	r24, 0x01	; 1
    1142:	0e 94 10 0c 	call	0x1820	; 0x1820 <DIO_Set_Pin_Output>
    1146:	41 e0       	ldi	r20, 0x01	; 1
    1148:	65 e0       	ldi	r22, 0x05	; 5
    114a:	81 e0       	ldi	r24, 0x01	; 1
    114c:	0e 94 10 0c 	call	0x1820	; 0x1820 <DIO_Set_Pin_Output>
    1150:	41 e0       	ldi	r20, 0x01	; 1
    1152:	66 e0       	ldi	r22, 0x06	; 6
    1154:	81 e0       	ldi	r24, 0x01	; 1
    1156:	0e 94 10 0c 	call	0x1820	; 0x1820 <DIO_Set_Pin_Output>
    115a:	40 e0       	ldi	r20, 0x00	; 0
    115c:	67 e0       	ldi	r22, 0x07	; 7
    115e:	81 e0       	ldi	r24, 0x01	; 1
    1160:	0e 94 10 0c 	call	0x1820	; 0x1820 <DIO_Set_Pin_Output>
    1164:	63 e0       	ldi	r22, 0x03	; 3
    1166:	82 e0       	ldi	r24, 0x02	; 2
    1168:	0e 94 b6 0c 	call	0x196c	; 0x196c <DIO_Get_Pin_Value>
    116c:	81 11       	cpse	r24, r1
    116e:	08 c0       	rjmp	.+16     	; 0x1180 <KEYPAD_Get_Pressed_Key+0x20c>
    1170:	63 e0       	ldi	r22, 0x03	; 3
    1172:	82 e0       	ldi	r24, 0x02	; 2
    1174:	0e 94 b6 0c 	call	0x196c	; 0x196c <DIO_Get_Pin_Value>
    1178:	88 23       	and	r24, r24
    117a:	d1 f3       	breq	.-12     	; 0x1170 <KEYPAD_Get_Pressed_Key+0x1fc>
    117c:	c1 e4       	ldi	r28, 0x41	; 65
    117e:	29 c0       	rjmp	.+82     	; 0x11d2 <KEYPAD_Get_Pressed_Key+0x25e>
    1180:	64 e0       	ldi	r22, 0x04	; 4
    1182:	82 e0       	ldi	r24, 0x02	; 2
    1184:	0e 94 b6 0c 	call	0x196c	; 0x196c <DIO_Get_Pin_Value>
    1188:	81 11       	cpse	r24, r1
    118a:	08 c0       	rjmp	.+16     	; 0x119c <KEYPAD_Get_Pressed_Key+0x228>
    118c:	64 e0       	ldi	r22, 0x04	; 4
    118e:	82 e0       	ldi	r24, 0x02	; 2
    1190:	0e 94 b6 0c 	call	0x196c	; 0x196c <DIO_Get_Pin_Value>
    1194:	88 23       	and	r24, r24
    1196:	d1 f3       	breq	.-12     	; 0x118c <KEYPAD_Get_Pressed_Key+0x218>
    1198:	c2 e4       	ldi	r28, 0x42	; 66
    119a:	1b c0       	rjmp	.+54     	; 0x11d2 <KEYPAD_Get_Pressed_Key+0x25e>
    119c:	65 e0       	ldi	r22, 0x05	; 5
    119e:	82 e0       	ldi	r24, 0x02	; 2
    11a0:	0e 94 b6 0c 	call	0x196c	; 0x196c <DIO_Get_Pin_Value>
    11a4:	81 11       	cpse	r24, r1
    11a6:	08 c0       	rjmp	.+16     	; 0x11b8 <KEYPAD_Get_Pressed_Key+0x244>
    11a8:	65 e0       	ldi	r22, 0x05	; 5
    11aa:	82 e0       	ldi	r24, 0x02	; 2
    11ac:	0e 94 b6 0c 	call	0x196c	; 0x196c <DIO_Get_Pin_Value>
    11b0:	88 23       	and	r24, r24
    11b2:	d1 f3       	breq	.-12     	; 0x11a8 <KEYPAD_Get_Pressed_Key+0x234>
    11b4:	c3 e4       	ldi	r28, 0x43	; 67
    11b6:	0d c0       	rjmp	.+26     	; 0x11d2 <KEYPAD_Get_Pressed_Key+0x25e>
    11b8:	66 e0       	ldi	r22, 0x06	; 6
    11ba:	82 e0       	ldi	r24, 0x02	; 2
    11bc:	0e 94 b6 0c 	call	0x196c	; 0x196c <DIO_Get_Pin_Value>
    11c0:	81 11       	cpse	r24, r1
    11c2:	07 c0       	rjmp	.+14     	; 0x11d2 <KEYPAD_Get_Pressed_Key+0x25e>
    11c4:	66 e0       	ldi	r22, 0x06	; 6
    11c6:	82 e0       	ldi	r24, 0x02	; 2
    11c8:	0e 94 b6 0c 	call	0x196c	; 0x196c <DIO_Get_Pin_Value>
    11cc:	88 23       	and	r24, r24
    11ce:	d1 f3       	breq	.-12     	; 0x11c4 <KEYPAD_Get_Pressed_Key+0x250>
    11d0:	c4 e4       	ldi	r28, 0x44	; 68
    11d2:	8c 2f       	mov	r24, r28
    11d4:	cf 91       	pop	r28
    11d6:	08 95       	ret

000011d8 <Send_Data_FallingEdge>:


#define Get_Bit_Value(Byte_Data,Bit_Order)	((Byte_Data>>Bit_Order)&(0x01)) /// 0,1

void Send_Data_FallingEdge(){
	DIO_Set_Pin_Output(PORTBx,3,High);///E HIGH
    11d8:	41 e0       	ldi	r20, 0x01	; 1
    11da:	63 e0       	ldi	r22, 0x03	; 3
    11dc:	81 e0       	ldi	r24, 0x01	; 1
    11de:	0e 94 10 0c 	call	0x1820	; 0x1820 <DIO_Set_Pin_Output>
    11e2:	8f ed       	ldi	r24, 0xDF	; 223
    11e4:	9e e2       	ldi	r25, 0x2E	; 46
    11e6:	01 97       	sbiw	r24, 0x01	; 1
    11e8:	f1 f7       	brne	.-4      	; 0x11e6 <Send_Data_FallingEdge+0xe>
    11ea:	00 c0       	rjmp	.+0      	; 0x11ec <Send_Data_FallingEdge+0x14>
    11ec:	00 00       	nop
	_delay_ms(3);
	DIO_Set_Pin_Output(PORTBx,3,Low);///E LOW
    11ee:	40 e0       	ldi	r20, 0x00	; 0
    11f0:	63 e0       	ldi	r22, 0x03	; 3
    11f2:	81 e0       	ldi	r24, 0x01	; 1
    11f4:	0e 94 10 0c 	call	0x1820	; 0x1820 <DIO_Set_Pin_Output>
    11f8:	8f ed       	ldi	r24, 0xDF	; 223
    11fa:	9e e2       	ldi	r25, 0x2E	; 46
    11fc:	01 97       	sbiw	r24, 0x01	; 1
    11fe:	f1 f7       	brne	.-4      	; 0x11fc <Send_Data_FallingEdge+0x24>
    1200:	00 c0       	rjmp	.+0      	; 0x1202 <Send_Data_FallingEdge+0x2a>
    1202:	00 00       	nop
    1204:	08 95       	ret

00001206 <LCD_Send_Cmd>:
	LCD_Send_Cmd(0x01);
	_delay_ms(2);
	Cursor_Position = 0;
}

void LCD_Send_Cmd(uint8 cmd){
    1206:	cf 93       	push	r28
    1208:	c8 2f       	mov	r28, r24
	DIO_Set_Pin_Output(PORTBx,1,Low);///RS LOW
    120a:	40 e0       	ldi	r20, 0x00	; 0
    120c:	61 e0       	ldi	r22, 0x01	; 1
    120e:	81 e0       	ldi	r24, 0x01	; 1
    1210:	0e 94 10 0c 	call	0x1820	; 0x1820 <DIO_Set_Pin_Output>
	DIO_Set_Pin_Output(PORTBx,2,Low);///RW LOW
    1214:	40 e0       	ldi	r20, 0x00	; 0
    1216:	62 e0       	ldi	r22, 0x02	; 2
    1218:	81 e0       	ldi	r24, 0x01	; 1
    121a:	0e 94 10 0c 	call	0x1820	; 0x1820 <DIO_Set_Pin_Output>
	
	DIO_Set_Pin_Output(PORTAx,4,Get_Bit_Value(cmd,4));///A4 CMD
    121e:	c4 fb       	bst	r28, 4
    1220:	44 27       	eor	r20, r20
    1222:	40 f9       	bld	r20, 0
    1224:	64 e0       	ldi	r22, 0x04	; 4
    1226:	80 e0       	ldi	r24, 0x00	; 0
    1228:	0e 94 10 0c 	call	0x1820	; 0x1820 <DIO_Set_Pin_Output>
	DIO_Set_Pin_Output(PORTAx,5,Get_Bit_Value(cmd,5));///A5 CMD
    122c:	c5 fb       	bst	r28, 5
    122e:	44 27       	eor	r20, r20
    1230:	40 f9       	bld	r20, 0
    1232:	65 e0       	ldi	r22, 0x05	; 5
    1234:	80 e0       	ldi	r24, 0x00	; 0
    1236:	0e 94 10 0c 	call	0x1820	; 0x1820 <DIO_Set_Pin_Output>
	DIO_Set_Pin_Output(PORTAx,6,Get_Bit_Value(cmd,6));///A6 CMD
    123a:	c6 fb       	bst	r28, 6
    123c:	44 27       	eor	r20, r20
    123e:	40 f9       	bld	r20, 0
    1240:	66 e0       	ldi	r22, 0x06	; 6
    1242:	80 e0       	ldi	r24, 0x00	; 0
    1244:	0e 94 10 0c 	call	0x1820	; 0x1820 <DIO_Set_Pin_Output>
	DIO_Set_Pin_Output(PORTAx,7,Get_Bit_Value(cmd,7));///A7 CMD
    1248:	4c 2f       	mov	r20, r28
    124a:	44 1f       	adc	r20, r20
    124c:	44 27       	eor	r20, r20
    124e:	44 1f       	adc	r20, r20
    1250:	67 e0       	ldi	r22, 0x07	; 7
    1252:	80 e0       	ldi	r24, 0x00	; 0
    1254:	0e 94 10 0c 	call	0x1820	; 0x1820 <DIO_Set_Pin_Output>
	Send_Data_FallingEdge();_delay_ms(5);
    1258:	0e 94 ec 08 	call	0x11d8	; 0x11d8 <Send_Data_FallingEdge>
    125c:	8f e1       	ldi	r24, 0x1F	; 31
    125e:	9e e4       	ldi	r25, 0x4E	; 78
    1260:	01 97       	sbiw	r24, 0x01	; 1
    1262:	f1 f7       	brne	.-4      	; 0x1260 <LCD_Send_Cmd+0x5a>
    1264:	00 c0       	rjmp	.+0      	; 0x1266 <LCD_Send_Cmd+0x60>
    1266:	00 00       	nop
	DIO_Set_Pin_Output(PORTAx,4,Get_Bit_Value(cmd,0));///A0 CMD
    1268:	4c 2f       	mov	r20, r28
    126a:	41 70       	andi	r20, 0x01	; 1
    126c:	64 e0       	ldi	r22, 0x04	; 4
    126e:	80 e0       	ldi	r24, 0x00	; 0
    1270:	0e 94 10 0c 	call	0x1820	; 0x1820 <DIO_Set_Pin_Output>
	DIO_Set_Pin_Output(PORTAx,5,Get_Bit_Value(cmd,1));///A1 CMD
    1274:	c1 fb       	bst	r28, 1
    1276:	44 27       	eor	r20, r20
    1278:	40 f9       	bld	r20, 0
    127a:	65 e0       	ldi	r22, 0x05	; 5
    127c:	80 e0       	ldi	r24, 0x00	; 0
    127e:	0e 94 10 0c 	call	0x1820	; 0x1820 <DIO_Set_Pin_Output>
	DIO_Set_Pin_Output(PORTAx,6,Get_Bit_Value(cmd,2));///A2 CMD
    1282:	c2 fb       	bst	r28, 2
    1284:	44 27       	eor	r20, r20
    1286:	40 f9       	bld	r20, 0
    1288:	66 e0       	ldi	r22, 0x06	; 6
    128a:	80 e0       	ldi	r24, 0x00	; 0
    128c:	0e 94 10 0c 	call	0x1820	; 0x1820 <DIO_Set_Pin_Output>
	DIO_Set_Pin_Output(PORTAx,7,Get_Bit_Value(cmd,3));///A3 CMD
    1290:	c3 fb       	bst	r28, 3
    1292:	44 27       	eor	r20, r20
    1294:	40 f9       	bld	r20, 0
    1296:	67 e0       	ldi	r22, 0x07	; 7
    1298:	80 e0       	ldi	r24, 0x00	; 0
    129a:	0e 94 10 0c 	call	0x1820	; 0x1820 <DIO_Set_Pin_Output>
	Send_Data_FallingEdge();_delay_ms(5);
    129e:	0e 94 ec 08 	call	0x11d8	; 0x11d8 <Send_Data_FallingEdge>
    12a2:	8f e1       	ldi	r24, 0x1F	; 31
    12a4:	9e e4       	ldi	r25, 0x4E	; 78
    12a6:	01 97       	sbiw	r24, 0x01	; 1
    12a8:	f1 f7       	brne	.-4      	; 0x12a6 <LCD_Send_Cmd+0xa0>
    12aa:	00 c0       	rjmp	.+0      	; 0x12ac <LCD_Send_Cmd+0xa6>
    12ac:	00 00       	nop
}
    12ae:	cf 91       	pop	r28
    12b0:	08 95       	ret

000012b2 <LCD_Init>:
	DIO_Set_Pin_Output(PORTBx,3,Low);///E LOW
	_delay_ms(3);
}

void LCD_Init(){
	DIO_Set_Pin_Direction(PORTBx,1,Out); ///B1 RS OUT
    12b2:	41 e0       	ldi	r20, 0x01	; 1
    12b4:	61 e0       	ldi	r22, 0x01	; 1
    12b6:	81 e0       	ldi	r24, 0x01	; 1
    12b8:	0e 94 a0 0b 	call	0x1740	; 0x1740 <DIO_Set_Pin_Direction>
	DIO_Set_Pin_Direction(PORTBx,2,Out); ///B2 RW OUT
    12bc:	41 e0       	ldi	r20, 0x01	; 1
    12be:	62 e0       	ldi	r22, 0x02	; 2
    12c0:	81 e0       	ldi	r24, 0x01	; 1
    12c2:	0e 94 a0 0b 	call	0x1740	; 0x1740 <DIO_Set_Pin_Direction>
	DIO_Set_Pin_Direction(PORTBx,3,Out); ///B3 E  OUT
    12c6:	41 e0       	ldi	r20, 0x01	; 1
    12c8:	63 e0       	ldi	r22, 0x03	; 3
    12ca:	81 e0       	ldi	r24, 0x01	; 1
    12cc:	0e 94 a0 0b 	call	0x1740	; 0x1740 <DIO_Set_Pin_Direction>
	DIO_Set_Pin_Direction(PORTAx,4,Out); ///D4 OUT
    12d0:	41 e0       	ldi	r20, 0x01	; 1
    12d2:	64 e0       	ldi	r22, 0x04	; 4
    12d4:	80 e0       	ldi	r24, 0x00	; 0
    12d6:	0e 94 a0 0b 	call	0x1740	; 0x1740 <DIO_Set_Pin_Direction>
	DIO_Set_Pin_Direction(PORTAx,5,Out); ///D5 OUT
    12da:	41 e0       	ldi	r20, 0x01	; 1
    12dc:	65 e0       	ldi	r22, 0x05	; 5
    12de:	80 e0       	ldi	r24, 0x00	; 0
    12e0:	0e 94 a0 0b 	call	0x1740	; 0x1740 <DIO_Set_Pin_Direction>
	DIO_Set_Pin_Direction(PORTAx,6,Out); ///D6 OUT
    12e4:	41 e0       	ldi	r20, 0x01	; 1
    12e6:	66 e0       	ldi	r22, 0x06	; 6
    12e8:	80 e0       	ldi	r24, 0x00	; 0
    12ea:	0e 94 a0 0b 	call	0x1740	; 0x1740 <DIO_Set_Pin_Direction>
	DIO_Set_Pin_Direction(PORTAx,7,Out); ///D7 OUT
    12ee:	41 e0       	ldi	r20, 0x01	; 1
    12f0:	67 e0       	ldi	r22, 0x07	; 7
    12f2:	80 e0       	ldi	r24, 0x00	; 0
    12f4:	0e 94 a0 0b 	call	0x1740	; 0x1740 <DIO_Set_Pin_Direction>
    12f8:	2f e7       	ldi	r18, 0x7F	; 127
    12fa:	85 eb       	ldi	r24, 0xB5	; 181
    12fc:	91 e0       	ldi	r25, 0x01	; 1
    12fe:	21 50       	subi	r18, 0x01	; 1
    1300:	80 40       	sbci	r24, 0x00	; 0
    1302:	90 40       	sbci	r25, 0x00	; 0
    1304:	e1 f7       	brne	.-8      	; 0x12fe <LCD_Init+0x4c>
    1306:	00 c0       	rjmp	.+0      	; 0x1308 <LCD_Init+0x56>
    1308:	00 00       	nop
	_delay_ms(35);
	LCD_Send_Cmd(0x33);
    130a:	83 e3       	ldi	r24, 0x33	; 51
    130c:	0e 94 03 09 	call	0x1206	; 0x1206 <LCD_Send_Cmd>
    1310:	8f e3       	ldi	r24, 0x3F	; 63
    1312:	9f e1       	ldi	r25, 0x1F	; 31
    1314:	01 97       	sbiw	r24, 0x01	; 1
    1316:	f1 f7       	brne	.-4      	; 0x1314 <LCD_Init+0x62>
    1318:	00 c0       	rjmp	.+0      	; 0x131a <LCD_Init+0x68>
    131a:	00 00       	nop
	_delay_ms(2);
	LCD_Send_Cmd(0x32);
    131c:	82 e3       	ldi	r24, 0x32	; 50
    131e:	0e 94 03 09 	call	0x1206	; 0x1206 <LCD_Send_Cmd>
    1322:	8f e3       	ldi	r24, 0x3F	; 63
    1324:	9f e1       	ldi	r25, 0x1F	; 31
    1326:	01 97       	sbiw	r24, 0x01	; 1
    1328:	f1 f7       	brne	.-4      	; 0x1326 <LCD_Init+0x74>
    132a:	00 c0       	rjmp	.+0      	; 0x132c <LCD_Init+0x7a>
    132c:	00 00       	nop
	_delay_ms(2);
	LCD_Send_Cmd(0x28);
    132e:	88 e2       	ldi	r24, 0x28	; 40
    1330:	0e 94 03 09 	call	0x1206	; 0x1206 <LCD_Send_Cmd>
    1334:	8f e3       	ldi	r24, 0x3F	; 63
    1336:	9f e1       	ldi	r25, 0x1F	; 31
    1338:	01 97       	sbiw	r24, 0x01	; 1
    133a:	f1 f7       	brne	.-4      	; 0x1338 <LCD_Init+0x86>
    133c:	00 c0       	rjmp	.+0      	; 0x133e <LCD_Init+0x8c>
    133e:	00 00       	nop
	_delay_ms(2);
	LCD_Send_Cmd(0x0F);
    1340:	8f e0       	ldi	r24, 0x0F	; 15
    1342:	0e 94 03 09 	call	0x1206	; 0x1206 <LCD_Send_Cmd>
    1346:	8f e3       	ldi	r24, 0x3F	; 63
    1348:	9f e1       	ldi	r25, 0x1F	; 31
    134a:	01 97       	sbiw	r24, 0x01	; 1
    134c:	f1 f7       	brne	.-4      	; 0x134a <LCD_Init+0x98>
    134e:	00 c0       	rjmp	.+0      	; 0x1350 <LCD_Init+0x9e>
    1350:	00 00       	nop
	_delay_ms(2);
	LCD_Send_Cmd(0x06);
    1352:	86 e0       	ldi	r24, 0x06	; 6
    1354:	0e 94 03 09 	call	0x1206	; 0x1206 <LCD_Send_Cmd>
    1358:	8f e3       	ldi	r24, 0x3F	; 63
    135a:	9f e1       	ldi	r25, 0x1F	; 31
    135c:	01 97       	sbiw	r24, 0x01	; 1
    135e:	f1 f7       	brne	.-4      	; 0x135c <LCD_Init+0xaa>
    1360:	00 c0       	rjmp	.+0      	; 0x1362 <LCD_Init+0xb0>
    1362:	00 00       	nop
	_delay_ms(2);
	LCD_Send_Cmd(0x01);
    1364:	81 e0       	ldi	r24, 0x01	; 1
    1366:	0e 94 03 09 	call	0x1206	; 0x1206 <LCD_Send_Cmd>
    136a:	8f e3       	ldi	r24, 0x3F	; 63
    136c:	9f e1       	ldi	r25, 0x1F	; 31
    136e:	01 97       	sbiw	r24, 0x01	; 1
    1370:	f1 f7       	brne	.-4      	; 0x136e <LCD_Init+0xbc>
    1372:	00 c0       	rjmp	.+0      	; 0x1374 <LCD_Init+0xc2>
    1374:	00 00       	nop
	_delay_ms(2);
	Cursor_Position = 0;
    1376:	10 92 59 06 	sts	0x0659, r1	; 0x800659 <Cursor_Position>
    137a:	08 95       	ret

0000137c <LCD_Set_Cursor_Position>:
		Send_Data_FallingEdge();_delay_ms(5);
		LCD_Position_Handler(RIGHT);
	}
}

void LCD_Set_Cursor_Position(uint8 row, uint8 col){
    137c:	cf 93       	push	r28
    137e:	df 93       	push	r29
    1380:	c8 2f       	mov	r28, r24
    1382:	d6 2f       	mov	r29, r22
	uint8 address = 0;
	address = ((row*(0x40))+(col));
    1384:	86 2f       	mov	r24, r22
    1386:	90 e4       	ldi	r25, 0x40	; 64
    1388:	c9 9f       	mul	r28, r25
    138a:	80 0d       	add	r24, r0
    138c:	11 24       	eor	r1, r1
	///Address + 1 bit for enable location move
	LCD_Send_Cmd(address|0x80);
    138e:	80 68       	ori	r24, 0x80	; 128
    1390:	0e 94 03 09 	call	0x1206	; 0x1206 <LCD_Send_Cmd>
	if(row == 0 && col <= 15){
    1394:	c1 11       	cpse	r28, r1
    1396:	05 c0       	rjmp	.+10     	; 0x13a2 <LCD_Set_Cursor_Position+0x26>
    1398:	d0 31       	cpi	r29, 0x10	; 16
    139a:	18 f4       	brcc	.+6      	; 0x13a2 <LCD_Set_Cursor_Position+0x26>
		Cursor_Position = col;
    139c:	d0 93 59 06 	sts	0x0659, r29	; 0x800659 <Cursor_Position>
    13a0:	07 c0       	rjmp	.+14     	; 0x13b0 <LCD_Set_Cursor_Position+0x34>
		}else if(row == 1 && col <= 15){
    13a2:	c1 30       	cpi	r28, 0x01	; 1
    13a4:	29 f4       	brne	.+10     	; 0x13b0 <LCD_Set_Cursor_Position+0x34>
    13a6:	d0 31       	cpi	r29, 0x10	; 16
    13a8:	18 f4       	brcc	.+6      	; 0x13b0 <LCD_Set_Cursor_Position+0x34>
		Cursor_Position = col + 16;
    13aa:	d0 5f       	subi	r29, 0xF0	; 240
    13ac:	d0 93 59 06 	sts	0x0659, r29	; 0x800659 <Cursor_Position>
	}
}
    13b0:	df 91       	pop	r29
    13b2:	cf 91       	pop	r28
    13b4:	08 95       	ret

000013b6 <LCD_Send_Clear_Screen>:

void LCD_Send_Clear_Screen(){
	LCD_Send_Cmd(0x01);
    13b6:	81 e0       	ldi	r24, 0x01	; 1
    13b8:	0e 94 03 09 	call	0x1206	; 0x1206 <LCD_Send_Cmd>
    13bc:	8f e3       	ldi	r24, 0x3F	; 63
    13be:	9f e1       	ldi	r25, 0x1F	; 31
    13c0:	01 97       	sbiw	r24, 0x01	; 1
    13c2:	f1 f7       	brne	.-4      	; 0x13c0 <LCD_Send_Clear_Screen+0xa>
    13c4:	00 c0       	rjmp	.+0      	; 0x13c6 <LCD_Send_Clear_Screen+0x10>
    13c6:	00 00       	nop
	_delay_ms(2);
	Cursor_Position = 0;
    13c8:	10 92 59 06 	sts	0x0659, r1	; 0x800659 <Cursor_Position>
    13cc:	08 95       	ret

000013ce <LCD_Position_Handler>:
		LCD_Send_Char(' ');_delay_ms(2);
		LCD_Cursor_Shift(LEFT);_delay_ms(2);
	}
}

void LCD_Position_Handler(Dir Direction){
    13ce:	cf 93       	push	r28
    13d0:	c8 2f       	mov	r28, r24
	if(Direction == RIGHT){// INCREASE
    13d2:	81 11       	cpse	r24, r1
    13d4:	22 c0       	rjmp	.+68     	; 0x141a <LCD_Position_Handler+0x4c>
		if(Cursor_Position <= 14){
    13d6:	80 91 59 06 	lds	r24, 0x0659	; 0x800659 <Cursor_Position>
    13da:	8f 30       	cpi	r24, 0x0F	; 15
    13dc:	20 f4       	brcc	.+8      	; 0x13e6 <LCD_Position_Handler+0x18>
			Cursor_Position++;
    13de:	8f 5f       	subi	r24, 0xFF	; 255
    13e0:	80 93 59 06 	sts	0x0659, r24	; 0x800659 <Cursor_Position>
    13e4:	1a c0       	rjmp	.+52     	; 0x141a <LCD_Position_Handler+0x4c>
			}else if(Cursor_Position == 15){
    13e6:	8f 30       	cpi	r24, 0x0F	; 15
    13e8:	41 f4       	brne	.+16     	; 0x13fa <LCD_Position_Handler+0x2c>
			Cursor_Position++;
    13ea:	8f 5f       	subi	r24, 0xFF	; 255
    13ec:	80 93 59 06 	sts	0x0659, r24	; 0x800659 <Cursor_Position>
			LCD_Set_Cursor_Position(1,0);
    13f0:	60 e0       	ldi	r22, 0x00	; 0
    13f2:	81 e0       	ldi	r24, 0x01	; 1
    13f4:	0e 94 be 09 	call	0x137c	; 0x137c <LCD_Set_Cursor_Position>
    13f8:	10 c0       	rjmp	.+32     	; 0x141a <LCD_Position_Handler+0x4c>
			}else if(Cursor_Position > 15 && Cursor_Position <= 30){
    13fa:	90 ef       	ldi	r25, 0xF0	; 240
    13fc:	98 0f       	add	r25, r24
    13fe:	9f 30       	cpi	r25, 0x0F	; 15
    1400:	20 f4       	brcc	.+8      	; 0x140a <LCD_Position_Handler+0x3c>
			Cursor_Position++;
    1402:	8f 5f       	subi	r24, 0xFF	; 255
    1404:	80 93 59 06 	sts	0x0659, r24	; 0x800659 <Cursor_Position>
    1408:	08 c0       	rjmp	.+16     	; 0x141a <LCD_Position_Handler+0x4c>
			}else if(Cursor_Position == 31){
    140a:	8f 31       	cpi	r24, 0x1F	; 31
    140c:	31 f4       	brne	.+12     	; 0x141a <LCD_Position_Handler+0x4c>
			Cursor_Position = 0;
    140e:	10 92 59 06 	sts	0x0659, r1	; 0x800659 <Cursor_Position>
			LCD_Set_Cursor_Position(0,0);
    1412:	60 e0       	ldi	r22, 0x00	; 0
    1414:	80 e0       	ldi	r24, 0x00	; 0
    1416:	0e 94 be 09 	call	0x137c	; 0x137c <LCD_Set_Cursor_Position>
		}
	}
	if(Direction == LEFT){// DECREASE
    141a:	c1 30       	cpi	r28, 0x01	; 1
    141c:	e9 f4       	brne	.+58     	; 0x1458 <LCD_Position_Handler+0x8a>
		if(Cursor_Position > 0 && Cursor_Position <=15 ){
    141e:	80 91 59 06 	lds	r24, 0x0659	; 0x800659 <Cursor_Position>
    1422:	9f ef       	ldi	r25, 0xFF	; 255
    1424:	98 0f       	add	r25, r24
    1426:	9f 30       	cpi	r25, 0x0F	; 15
    1428:	18 f4       	brcc	.+6      	; 0x1430 <LCD_Position_Handler+0x62>
			Cursor_Position--;
    142a:	90 93 59 06 	sts	0x0659, r25	; 0x800659 <Cursor_Position>
    142e:	14 c0       	rjmp	.+40     	; 0x1458 <LCD_Position_Handler+0x8a>
			}else if(Cursor_Position == 16){
    1430:	80 31       	cpi	r24, 0x10	; 16
    1432:	29 f4       	brne	.+10     	; 0x143e <LCD_Position_Handler+0x70>
			LCD_Set_Cursor_Position(0,15);
    1434:	6f e0       	ldi	r22, 0x0F	; 15
    1436:	80 e0       	ldi	r24, 0x00	; 0
    1438:	0e 94 be 09 	call	0x137c	; 0x137c <LCD_Set_Cursor_Position>
    143c:	0d c0       	rjmp	.+26     	; 0x1458 <LCD_Position_Handler+0x8a>
			}else if(Cursor_Position > 16 && Cursor_Position <= 31){
    143e:	2f ee       	ldi	r18, 0xEF	; 239
    1440:	28 0f       	add	r18, r24
    1442:	2f 30       	cpi	r18, 0x0F	; 15
    1444:	18 f4       	brcc	.+6      	; 0x144c <LCD_Position_Handler+0x7e>
			Cursor_Position--;
    1446:	90 93 59 06 	sts	0x0659, r25	; 0x800659 <Cursor_Position>
    144a:	06 c0       	rjmp	.+12     	; 0x1458 <LCD_Position_Handler+0x8a>
			}else if(Cursor_Position == 0){
    144c:	81 11       	cpse	r24, r1
    144e:	04 c0       	rjmp	.+8      	; 0x1458 <LCD_Position_Handler+0x8a>
			LCD_Set_Cursor_Position(1,15);
    1450:	6f e0       	ldi	r22, 0x0F	; 15
    1452:	81 e0       	ldi	r24, 0x01	; 1
    1454:	0e 94 be 09 	call	0x137c	; 0x137c <LCD_Set_Cursor_Position>
		}
	}
	
}
    1458:	cf 91       	pop	r28
    145a:	08 95       	ret

0000145c <LCD_Send_Char>:
	DIO_Set_Pin_Output(PORTAx,6,Get_Bit_Value(cmd,2));///A2 CMD
	DIO_Set_Pin_Output(PORTAx,7,Get_Bit_Value(cmd,3));///A3 CMD
	Send_Data_FallingEdge();_delay_ms(5);
}

void LCD_Send_Char(uint8 character){
    145c:	cf 93       	push	r28
	if((character >= 32) && (character <= 125))
    145e:	90 ee       	ldi	r25, 0xE0	; 224
    1460:	98 0f       	add	r25, r24
    1462:	9e 35       	cpi	r25, 0x5E	; 94
    1464:	08 f0       	brcs	.+2      	; 0x1468 <LCD_Send_Char+0xc>
    1466:	56 c0       	rjmp	.+172    	; 0x1514 <LCD_Send_Char+0xb8>
    1468:	c8 2f       	mov	r28, r24
	{
		DIO_Set_Pin_Output(PORTBx,1,High);///RS High For DATA
    146a:	41 e0       	ldi	r20, 0x01	; 1
    146c:	61 e0       	ldi	r22, 0x01	; 1
    146e:	81 e0       	ldi	r24, 0x01	; 1
    1470:	0e 94 10 0c 	call	0x1820	; 0x1820 <DIO_Set_Pin_Output>
		DIO_Set_Pin_Output(PORTBx,2,Low);///RW LOW
    1474:	40 e0       	ldi	r20, 0x00	; 0
    1476:	62 e0       	ldi	r22, 0x02	; 2
    1478:	81 e0       	ldi	r24, 0x01	; 1
    147a:	0e 94 10 0c 	call	0x1820	; 0x1820 <DIO_Set_Pin_Output>
		DIO_Set_Pin_Output(PORTAx,4,Get_Bit_Value(character,4));///A4 CMD
    147e:	c4 fb       	bst	r28, 4
    1480:	44 27       	eor	r20, r20
    1482:	40 f9       	bld	r20, 0
    1484:	64 e0       	ldi	r22, 0x04	; 4
    1486:	80 e0       	ldi	r24, 0x00	; 0
    1488:	0e 94 10 0c 	call	0x1820	; 0x1820 <DIO_Set_Pin_Output>
		DIO_Set_Pin_Output(PORTAx,5,Get_Bit_Value(character,5));///A5 CMD
    148c:	c5 fb       	bst	r28, 5
    148e:	44 27       	eor	r20, r20
    1490:	40 f9       	bld	r20, 0
    1492:	65 e0       	ldi	r22, 0x05	; 5
    1494:	80 e0       	ldi	r24, 0x00	; 0
    1496:	0e 94 10 0c 	call	0x1820	; 0x1820 <DIO_Set_Pin_Output>
		DIO_Set_Pin_Output(PORTAx,6,Get_Bit_Value(character,6));///A6 CMD
    149a:	c6 fb       	bst	r28, 6
    149c:	44 27       	eor	r20, r20
    149e:	40 f9       	bld	r20, 0
    14a0:	66 e0       	ldi	r22, 0x06	; 6
    14a2:	80 e0       	ldi	r24, 0x00	; 0
    14a4:	0e 94 10 0c 	call	0x1820	; 0x1820 <DIO_Set_Pin_Output>
		DIO_Set_Pin_Output(PORTAx,7,Get_Bit_Value(character,7));///A7 CMD
    14a8:	4c 2f       	mov	r20, r28
    14aa:	44 1f       	adc	r20, r20
    14ac:	44 27       	eor	r20, r20
    14ae:	44 1f       	adc	r20, r20
    14b0:	67 e0       	ldi	r22, 0x07	; 7
    14b2:	80 e0       	ldi	r24, 0x00	; 0
    14b4:	0e 94 10 0c 	call	0x1820	; 0x1820 <DIO_Set_Pin_Output>
		Send_Data_FallingEdge();_delay_ms(5);
    14b8:	0e 94 ec 08 	call	0x11d8	; 0x11d8 <Send_Data_FallingEdge>
    14bc:	8f e1       	ldi	r24, 0x1F	; 31
    14be:	9e e4       	ldi	r25, 0x4E	; 78
    14c0:	01 97       	sbiw	r24, 0x01	; 1
    14c2:	f1 f7       	brne	.-4      	; 0x14c0 <LCD_Send_Char+0x64>
    14c4:	00 c0       	rjmp	.+0      	; 0x14c6 <LCD_Send_Char+0x6a>
    14c6:	00 00       	nop
		DIO_Set_Pin_Output(PORTAx,4,Get_Bit_Value(character,0));///A0 CMD
    14c8:	4c 2f       	mov	r20, r28
    14ca:	41 70       	andi	r20, 0x01	; 1
    14cc:	64 e0       	ldi	r22, 0x04	; 4
    14ce:	80 e0       	ldi	r24, 0x00	; 0
    14d0:	0e 94 10 0c 	call	0x1820	; 0x1820 <DIO_Set_Pin_Output>
		DIO_Set_Pin_Output(PORTAx,5,Get_Bit_Value(character,1));///A1 CMD
    14d4:	c1 fb       	bst	r28, 1
    14d6:	44 27       	eor	r20, r20
    14d8:	40 f9       	bld	r20, 0
    14da:	65 e0       	ldi	r22, 0x05	; 5
    14dc:	80 e0       	ldi	r24, 0x00	; 0
    14de:	0e 94 10 0c 	call	0x1820	; 0x1820 <DIO_Set_Pin_Output>
		DIO_Set_Pin_Output(PORTAx,6,Get_Bit_Value(character,2));///A2 CMD
    14e2:	c2 fb       	bst	r28, 2
    14e4:	44 27       	eor	r20, r20
    14e6:	40 f9       	bld	r20, 0
    14e8:	66 e0       	ldi	r22, 0x06	; 6
    14ea:	80 e0       	ldi	r24, 0x00	; 0
    14ec:	0e 94 10 0c 	call	0x1820	; 0x1820 <DIO_Set_Pin_Output>
		DIO_Set_Pin_Output(PORTAx,7,Get_Bit_Value(character,3));///A3 CMD
    14f0:	c3 fb       	bst	r28, 3
    14f2:	44 27       	eor	r20, r20
    14f4:	40 f9       	bld	r20, 0
    14f6:	67 e0       	ldi	r22, 0x07	; 7
    14f8:	80 e0       	ldi	r24, 0x00	; 0
    14fa:	0e 94 10 0c 	call	0x1820	; 0x1820 <DIO_Set_Pin_Output>
		Send_Data_FallingEdge();_delay_ms(5);
    14fe:	0e 94 ec 08 	call	0x11d8	; 0x11d8 <Send_Data_FallingEdge>
    1502:	8f e1       	ldi	r24, 0x1F	; 31
    1504:	9e e4       	ldi	r25, 0x4E	; 78
    1506:	01 97       	sbiw	r24, 0x01	; 1
    1508:	f1 f7       	brne	.-4      	; 0x1506 <LCD_Send_Char+0xaa>
    150a:	00 c0       	rjmp	.+0      	; 0x150c <LCD_Send_Char+0xb0>
    150c:	00 00       	nop
		LCD_Position_Handler(RIGHT);
    150e:	80 e0       	ldi	r24, 0x00	; 0
    1510:	0e 94 e7 09 	call	0x13ce	; 0x13ce <LCD_Position_Handler>
	}
}
    1514:	cf 91       	pop	r28
    1516:	08 95       	ret

00001518 <LCD_Cursor_Shift>:
	LCD_Send_Cmd(0x01);
	_delay_ms(2);
	Cursor_Position = 0;
}

void LCD_Cursor_Shift(Dir Direction){
    1518:	cf 93       	push	r28
    151a:	c8 2f       	mov	r28, r24
	if (Direction == RIGHT && Cursor_Position < 31)
    151c:	81 11       	cpse	r24, r1
    151e:	0b c0       	rjmp	.+22     	; 0x1536 <LCD_Cursor_Shift+0x1e>
    1520:	80 91 59 06 	lds	r24, 0x0659	; 0x800659 <Cursor_Position>
    1524:	8f 31       	cpi	r24, 0x1F	; 31
    1526:	38 f4       	brcc	.+14     	; 0x1536 <LCD_Cursor_Shift+0x1e>
	{
		LCD_Send_Cmd(0x14);
    1528:	84 e1       	ldi	r24, 0x14	; 20
    152a:	0e 94 03 09 	call	0x1206	; 0x1206 <LCD_Send_Cmd>
		LCD_Position_Handler(Direction);
    152e:	8c 2f       	mov	r24, r28
    1530:	0e 94 e7 09 	call	0x13ce	; 0x13ce <LCD_Position_Handler>
    1534:	08 c0       	rjmp	.+16     	; 0x1546 <LCD_Cursor_Shift+0x2e>
	}
	else if (Direction == LEFT && Cursor_Position >=0)
    1536:	c1 30       	cpi	r28, 0x01	; 1
    1538:	31 f4       	brne	.+12     	; 0x1546 <LCD_Cursor_Shift+0x2e>
	{
		LCD_Send_Cmd(0x10);
    153a:	80 e1       	ldi	r24, 0x10	; 16
    153c:	0e 94 03 09 	call	0x1206	; 0x1206 <LCD_Send_Cmd>
		LCD_Position_Handler(Direction);
    1540:	8c 2f       	mov	r24, r28
    1542:	0e 94 e7 09 	call	0x13ce	; 0x13ce <LCD_Position_Handler>
	}
}
    1546:	cf 91       	pop	r28
    1548:	08 95       	ret

0000154a <LCD_Delete_Last_Written>:

void LCD_Delete_Last_Written(){
	if(Cursor_Position >=0){
		LCD_Cursor_Shift(LEFT);_delay_ms(2);
    154a:	81 e0       	ldi	r24, 0x01	; 1
    154c:	0e 94 8c 0a 	call	0x1518	; 0x1518 <LCD_Cursor_Shift>
    1550:	8f e3       	ldi	r24, 0x3F	; 63
    1552:	9f e1       	ldi	r25, 0x1F	; 31
    1554:	01 97       	sbiw	r24, 0x01	; 1
    1556:	f1 f7       	brne	.-4      	; 0x1554 <LCD_Delete_Last_Written+0xa>
    1558:	00 c0       	rjmp	.+0      	; 0x155a <LCD_Delete_Last_Written+0x10>
    155a:	00 00       	nop
		LCD_Send_Char(' ');_delay_ms(2);
    155c:	80 e2       	ldi	r24, 0x20	; 32
    155e:	0e 94 2e 0a 	call	0x145c	; 0x145c <LCD_Send_Char>
    1562:	8f e3       	ldi	r24, 0x3F	; 63
    1564:	9f e1       	ldi	r25, 0x1F	; 31
    1566:	01 97       	sbiw	r24, 0x01	; 1
    1568:	f1 f7       	brne	.-4      	; 0x1566 <LCD_Delete_Last_Written+0x1c>
    156a:	00 c0       	rjmp	.+0      	; 0x156c <LCD_Delete_Last_Written+0x22>
    156c:	00 00       	nop
		LCD_Cursor_Shift(LEFT);_delay_ms(2);
    156e:	81 e0       	ldi	r24, 0x01	; 1
    1570:	0e 94 8c 0a 	call	0x1518	; 0x1518 <LCD_Cursor_Shift>
    1574:	8f e3       	ldi	r24, 0x3F	; 63
    1576:	9f e1       	ldi	r25, 0x1F	; 31
    1578:	01 97       	sbiw	r24, 0x01	; 1
    157a:	f1 f7       	brne	.-4      	; 0x1578 <LCD_Delete_Last_Written+0x2e>
    157c:	00 c0       	rjmp	.+0      	; 0x157e <LCD_Delete_Last_Written+0x34>
    157e:	00 00       	nop
    1580:	08 95       	ret

00001582 <LCD_Send_String>:
		}
	}
	
}

void LCD_Send_String(sint8 * str){
    1582:	0f 93       	push	r16
    1584:	1f 93       	push	r17
    1586:	cf 93       	push	r28
    1588:	8c 01       	movw	r16, r24
	uint8 index =0;
    158a:	c0 e0       	ldi	r28, 0x00	; 0
	while(str[index] != '\0'){
    158c:	09 c0       	rjmp	.+18     	; 0x15a0 <LCD_Send_String+0x1e>
		LCD_Send_Char(str[index]);
    158e:	0e 94 2e 0a 	call	0x145c	; 0x145c <LCD_Send_Char>
		index++;
    1592:	cf 5f       	subi	r28, 0xFF	; 255
    1594:	8f e1       	ldi	r24, 0x1F	; 31
    1596:	9e e4       	ldi	r25, 0x4E	; 78
    1598:	01 97       	sbiw	r24, 0x01	; 1
    159a:	f1 f7       	brne	.-4      	; 0x1598 <LCD_Send_String+0x16>
    159c:	00 c0       	rjmp	.+0      	; 0x159e <LCD_Send_String+0x1c>
    159e:	00 00       	nop
	
}

void LCD_Send_String(sint8 * str){
	uint8 index =0;
	while(str[index] != '\0'){
    15a0:	f8 01       	movw	r30, r16
    15a2:	ec 0f       	add	r30, r28
    15a4:	f1 1d       	adc	r31, r1
    15a6:	80 81       	ld	r24, Z
    15a8:	81 11       	cpse	r24, r1
    15aa:	f1 cf       	rjmp	.-30     	; 0x158e <LCD_Send_String+0xc>
		LCD_Send_Char(str[index]);
		index++;
		_delay_ms(5);
	}
}
    15ac:	cf 91       	pop	r28
    15ae:	1f 91       	pop	r17
    15b0:	0f 91       	pop	r16
    15b2:	08 95       	ret

000015b4 <LED_Init_All>:
    15b4:	41 e0       	ldi	r20, 0x01	; 1
    15b6:	62 e0       	ldi	r22, 0x02	; 2
    15b8:	82 e0       	ldi	r24, 0x02	; 2
    15ba:	0e 94 a0 0b 	call	0x1740	; 0x1740 <DIO_Set_Pin_Direction>
    15be:	41 e0       	ldi	r20, 0x01	; 1
    15c0:	67 e0       	ldi	r22, 0x07	; 7
    15c2:	82 e0       	ldi	r24, 0x02	; 2
    15c4:	0e 94 a0 0b 	call	0x1740	; 0x1740 <DIO_Set_Pin_Direction>
    15c8:	41 e0       	ldi	r20, 0x01	; 1
    15ca:	63 e0       	ldi	r22, 0x03	; 3
    15cc:	83 e0       	ldi	r24, 0x03	; 3
    15ce:	0e 94 a0 0b 	call	0x1740	; 0x1740 <DIO_Set_Pin_Direction>
    15d2:	41 e0       	ldi	r20, 0x01	; 1
    15d4:	65 e0       	ldi	r22, 0x05	; 5
    15d6:	83 e0       	ldi	r24, 0x03	; 3
    15d8:	0e 94 a0 0b 	call	0x1740	; 0x1740 <DIO_Set_Pin_Direction>
    15dc:	41 e0       	ldi	r20, 0x01	; 1
    15de:	64 e0       	ldi	r22, 0x04	; 4
    15e0:	83 e0       	ldi	r24, 0x03	; 3
    15e2:	0e 94 a0 0b 	call	0x1740	; 0x1740 <DIO_Set_Pin_Direction>
    15e6:	41 e0       	ldi	r20, 0x01	; 1
    15e8:	60 e0       	ldi	r22, 0x00	; 0
    15ea:	80 e0       	ldi	r24, 0x00	; 0
    15ec:	0e 94 a0 0b 	call	0x1740	; 0x1740 <DIO_Set_Pin_Direction>
    15f0:	08 95       	ret

000015f2 <LED_0_Off>:
    15f2:	40 e0       	ldi	r20, 0x00	; 0
    15f4:	62 e0       	ldi	r22, 0x02	; 2
    15f6:	82 e0       	ldi	r24, 0x02	; 2
    15f8:	0e 94 10 0c 	call	0x1820	; 0x1820 <DIO_Set_Pin_Output>
    15fc:	08 95       	ret

000015fe <LED_1_Off>:
    15fe:	40 e0       	ldi	r20, 0x00	; 0
    1600:	67 e0       	ldi	r22, 0x07	; 7
    1602:	82 e0       	ldi	r24, 0x02	; 2
    1604:	0e 94 10 0c 	call	0x1820	; 0x1820 <DIO_Set_Pin_Output>
    1608:	08 95       	ret

0000160a <LED_2_Off>:
    160a:	40 e0       	ldi	r20, 0x00	; 0
    160c:	63 e0       	ldi	r22, 0x03	; 3
    160e:	83 e0       	ldi	r24, 0x03	; 3
    1610:	0e 94 10 0c 	call	0x1820	; 0x1820 <DIO_Set_Pin_Output>
    1614:	08 95       	ret

00001616 <LED_3_Off>:
    1616:	40 e0       	ldi	r20, 0x00	; 0
    1618:	65 e0       	ldi	r22, 0x05	; 5
    161a:	83 e0       	ldi	r24, 0x03	; 3
    161c:	0e 94 10 0c 	call	0x1820	; 0x1820 <DIO_Set_Pin_Output>
    1620:	08 95       	ret

00001622 <LED_4_Off>:
    1622:	40 e0       	ldi	r20, 0x00	; 0
    1624:	64 e0       	ldi	r22, 0x04	; 4
    1626:	83 e0       	ldi	r24, 0x03	; 3
    1628:	0e 94 10 0c 	call	0x1820	; 0x1820 <DIO_Set_Pin_Output>
    162c:	08 95       	ret

0000162e <LED_0_Toggle>:
    162e:	42 e0       	ldi	r20, 0x02	; 2
    1630:	62 e0       	ldi	r22, 0x02	; 2
    1632:	82 e0       	ldi	r24, 0x02	; 2
    1634:	0e 94 10 0c 	call	0x1820	; 0x1820 <DIO_Set_Pin_Output>
    1638:	08 95       	ret

0000163a <LED_1_Toggle>:
    163a:	42 e0       	ldi	r20, 0x02	; 2
    163c:	67 e0       	ldi	r22, 0x07	; 7
    163e:	82 e0       	ldi	r24, 0x02	; 2
    1640:	0e 94 10 0c 	call	0x1820	; 0x1820 <DIO_Set_Pin_Output>
    1644:	08 95       	ret

00001646 <LED_2_Toggle>:
    1646:	42 e0       	ldi	r20, 0x02	; 2
    1648:	63 e0       	ldi	r22, 0x03	; 3
    164a:	83 e0       	ldi	r24, 0x03	; 3
    164c:	0e 94 10 0c 	call	0x1820	; 0x1820 <DIO_Set_Pin_Output>
    1650:	08 95       	ret

00001652 <LED_3_Toggle>:
    1652:	42 e0       	ldi	r20, 0x02	; 2
    1654:	65 e0       	ldi	r22, 0x05	; 5
    1656:	83 e0       	ldi	r24, 0x03	; 3
    1658:	0e 94 10 0c 	call	0x1820	; 0x1820 <DIO_Set_Pin_Output>
    165c:	08 95       	ret

0000165e <LED_4_Toggle>:
    165e:	42 e0       	ldi	r20, 0x02	; 2
    1660:	64 e0       	ldi	r22, 0x04	; 4
    1662:	83 e0       	ldi	r24, 0x03	; 3
    1664:	0e 94 10 0c 	call	0x1820	; 0x1820 <DIO_Set_Pin_Output>
    1668:	08 95       	ret

0000166a <LED_Feedback>:
    166a:	cf 93       	push	r28
    166c:	83 30       	cpi	r24, 0x03	; 3
    166e:	99 f0       	breq	.+38     	; 0x1696 <LED_Feedback+0x2c>
    1670:	28 f4       	brcc	.+10     	; 0x167c <LED_Feedback+0x12>
    1672:	81 30       	cpi	r24, 0x01	; 1
    1674:	41 f0       	breq	.+16     	; 0x1686 <LED_Feedback+0x1c>
    1676:	82 30       	cpi	r24, 0x02	; 2
    1678:	51 f0       	breq	.+20     	; 0x168e <LED_Feedback+0x24>
    167a:	19 c0       	rjmp	.+50     	; 0x16ae <LED_Feedback+0x44>
    167c:	84 30       	cpi	r24, 0x04	; 4
    167e:	79 f0       	breq	.+30     	; 0x169e <LED_Feedback+0x34>
    1680:	85 30       	cpi	r24, 0x05	; 5
    1682:	89 f0       	breq	.+34     	; 0x16a6 <LED_Feedback+0x3c>
    1684:	14 c0       	rjmp	.+40     	; 0x16ae <LED_Feedback+0x44>
    1686:	0e 94 17 0b 	call	0x162e	; 0x162e <LED_0_Toggle>
    168a:	c0 e0       	ldi	r28, 0x00	; 0
    168c:	11 c0       	rjmp	.+34     	; 0x16b0 <LED_Feedback+0x46>
    168e:	0e 94 1d 0b 	call	0x163a	; 0x163a <LED_1_Toggle>
    1692:	c1 e0       	ldi	r28, 0x01	; 1
    1694:	0d c0       	rjmp	.+26     	; 0x16b0 <LED_Feedback+0x46>
    1696:	0e 94 23 0b 	call	0x1646	; 0x1646 <LED_2_Toggle>
    169a:	c2 e0       	ldi	r28, 0x02	; 2
    169c:	09 c0       	rjmp	.+18     	; 0x16b0 <LED_Feedback+0x46>
    169e:	0e 94 29 0b 	call	0x1652	; 0x1652 <LED_3_Toggle>
    16a2:	c3 e0       	ldi	r28, 0x03	; 3
    16a4:	05 c0       	rjmp	.+10     	; 0x16b0 <LED_Feedback+0x46>
    16a6:	0e 94 2f 0b 	call	0x165e	; 0x165e <LED_4_Toggle>
    16aa:	c4 e0       	ldi	r28, 0x04	; 4
    16ac:	01 c0       	rjmp	.+2      	; 0x16b0 <LED_Feedback+0x46>
    16ae:	c0 e0       	ldi	r28, 0x00	; 0
    16b0:	83 eb       	ldi	r24, 0xB3	; 179
    16b2:	93 e0       	ldi	r25, 0x03	; 3
    16b4:	0e 94 66 0d 	call	0x1acc	; 0x1acc <UART_Send_String_Polling_8>
    16b8:	8c 2f       	mov	r24, r28
    16ba:	90 e0       	ldi	r25, 0x00	; 0
    16bc:	0e 94 62 0d 	call	0x1ac4	; 0x1ac4 <UART_Send_Byte_Polling_8>
    16c0:	88 eb       	ldi	r24, 0xB8	; 184
    16c2:	93 e0       	ldi	r25, 0x03	; 3
    16c4:	0e 94 66 0d 	call	0x1acc	; 0x1acc <UART_Send_String_Polling_8>
    16c8:	cf 91       	pop	r28
    16ca:	08 95       	ret

000016cc <main>:
/***********************************************************************/

#include "Application/SmartHome_Core_Header.h"

int main(void){
	Smart_Initialization();
    16cc:	0e 94 ea 00 	call	0x1d4	; 0x1d4 <Smart_Initialization>
	while (1) 
    {
		Smart_Idle();
    16d0:	0e 94 cc 04 	call	0x998	; 0x998 <Smart_Idle>
    16d4:	fd cf       	rjmp	.-6      	; 0x16d0 <main+0x4>

000016d6 <ADC_Enable>:
	ADC_Start();// Timer will Start it Automatically
}

void ADC_Interrupt_Flag_Clear(){
	//Bit 4  ADIF: ADC Interrupt Flag
	Set(ADCSRA_Reg,4);
    16d6:	86 b1       	in	r24, 0x06	; 6
    16d8:	80 68       	ori	r24, 0x80	; 128
    16da:	86 b9       	out	0x06, r24	; 6
    16dc:	08 95       	ret

000016de <ADC_Disable>:
    16de:	86 b1       	in	r24, 0x06	; 6
    16e0:	8f 77       	andi	r24, 0x7F	; 127
    16e2:	86 b9       	out	0x06, r24	; 6
    16e4:	08 95       	ret

000016e6 <ADC_Start>:
    16e6:	86 b1       	in	r24, 0x06	; 6
    16e8:	80 64       	ori	r24, 0x40	; 64
    16ea:	86 b9       	out	0x06, r24	; 6
    16ec:	08 95       	ret

000016ee <ADC_Wait>:
    16ee:	36 99       	sbic	0x06, 6	; 6
    16f0:	fe cf       	rjmp	.-4      	; 0x16ee <ADC_Wait>
    16f2:	08 95       	ret

000016f4 <ADC_Init>:
    16f4:	87 b1       	in	r24, 0x07	; 7
    16f6:	80 64       	ori	r24, 0x40	; 64
    16f8:	87 b9       	out	0x07, r24	; 7
    16fa:	87 b1       	in	r24, 0x07	; 7
    16fc:	8f 77       	andi	r24, 0x7F	; 127
    16fe:	87 b9       	out	0x07, r24	; 7
    1700:	87 b1       	in	r24, 0x07	; 7
    1702:	80 62       	ori	r24, 0x20	; 32
    1704:	87 b9       	out	0x07, r24	; 7
    1706:	86 b1       	in	r24, 0x06	; 6
    1708:	8e 7f       	andi	r24, 0xFE	; 254
    170a:	86 b9       	out	0x06, r24	; 6
    170c:	86 b1       	in	r24, 0x06	; 6
    170e:	8d 7f       	andi	r24, 0xFD	; 253
    1710:	86 b9       	out	0x06, r24	; 6
    1712:	86 b1       	in	r24, 0x06	; 6
    1714:	84 60       	ori	r24, 0x04	; 4
    1716:	86 b9       	out	0x06, r24	; 6
    1718:	08 95       	ret

0000171a <ADC_Convert_8bit>:
}


#if ADC_ADJUSTMENT == ADC_Left_Adjust
uint8 ADC_Convert_8bit(uint8 channel)
{
    171a:	cf 93       	push	r28
    171c:	c8 2f       	mov	r28, r24
	ADC_Disable();
    171e:	0e 94 6f 0b 	call	0x16de	; 0x16de <ADC_Disable>
	ADMUX_Reg = (ADMUX_Reg & 0b11100000);
    1722:	87 b1       	in	r24, 0x07	; 7
    1724:	80 7e       	andi	r24, 0xE0	; 224
    1726:	87 b9       	out	0x07, r24	; 7
	ADMUX_Reg = ADMUX_Reg | channel;
    1728:	87 b1       	in	r24, 0x07	; 7
    172a:	c8 2b       	or	r28, r24
    172c:	c7 b9       	out	0x07, r28	; 7
	ADC_Enable();
    172e:	0e 94 6b 0b 	call	0x16d6	; 0x16d6 <ADC_Enable>
	ADC_Start();
    1732:	0e 94 73 0b 	call	0x16e6	; 0x16e6 <ADC_Start>
	ADC_Wait();
    1736:	0e 94 77 0b 	call	0x16ee	; 0x16ee <ADC_Wait>
	return ADCH_Reg;
    173a:	85 b1       	in	r24, 0x05	; 5
}
    173c:	cf 91       	pop	r28
    173e:	08 95       	ret

00001740 <DIO_Set_Pin_Direction>:
    1740:	41 30       	cpi	r20, 0x01	; 1
    1742:	a1 f5       	brne	.+104    	; 0x17ac <DIO_Set_Pin_Direction+0x6c>
    1744:	81 30       	cpi	r24, 0x01	; 1
    1746:	89 f0       	breq	.+34     	; 0x176a <DIO_Set_Pin_Direction+0x2a>
    1748:	28 f0       	brcs	.+10     	; 0x1754 <DIO_Set_Pin_Direction+0x14>
    174a:	82 30       	cpi	r24, 0x02	; 2
    174c:	c9 f0       	breq	.+50     	; 0x1780 <DIO_Set_Pin_Direction+0x40>
    174e:	83 30       	cpi	r24, 0x03	; 3
    1750:	11 f1       	breq	.+68     	; 0x1796 <DIO_Set_Pin_Direction+0x56>
    1752:	08 95       	ret
    1754:	2a b3       	in	r18, 0x1a	; 26
    1756:	81 e0       	ldi	r24, 0x01	; 1
    1758:	90 e0       	ldi	r25, 0x00	; 0
    175a:	02 c0       	rjmp	.+4      	; 0x1760 <DIO_Set_Pin_Direction+0x20>
    175c:	88 0f       	add	r24, r24
    175e:	99 1f       	adc	r25, r25
    1760:	6a 95       	dec	r22
    1762:	e2 f7       	brpl	.-8      	; 0x175c <DIO_Set_Pin_Direction+0x1c>
    1764:	82 2b       	or	r24, r18
    1766:	8a bb       	out	0x1a, r24	; 26
    1768:	08 95       	ret
    176a:	27 b3       	in	r18, 0x17	; 23
    176c:	81 e0       	ldi	r24, 0x01	; 1
    176e:	90 e0       	ldi	r25, 0x00	; 0
    1770:	02 c0       	rjmp	.+4      	; 0x1776 <DIO_Set_Pin_Direction+0x36>
    1772:	88 0f       	add	r24, r24
    1774:	99 1f       	adc	r25, r25
    1776:	6a 95       	dec	r22
    1778:	e2 f7       	brpl	.-8      	; 0x1772 <DIO_Set_Pin_Direction+0x32>
    177a:	82 2b       	or	r24, r18
    177c:	87 bb       	out	0x17, r24	; 23
    177e:	08 95       	ret
    1780:	24 b3       	in	r18, 0x14	; 20
    1782:	81 e0       	ldi	r24, 0x01	; 1
    1784:	90 e0       	ldi	r25, 0x00	; 0
    1786:	02 c0       	rjmp	.+4      	; 0x178c <DIO_Set_Pin_Direction+0x4c>
    1788:	88 0f       	add	r24, r24
    178a:	99 1f       	adc	r25, r25
    178c:	6a 95       	dec	r22
    178e:	e2 f7       	brpl	.-8      	; 0x1788 <DIO_Set_Pin_Direction+0x48>
    1790:	82 2b       	or	r24, r18
    1792:	84 bb       	out	0x14, r24	; 20
    1794:	08 95       	ret
    1796:	21 b3       	in	r18, 0x11	; 17
    1798:	81 e0       	ldi	r24, 0x01	; 1
    179a:	90 e0       	ldi	r25, 0x00	; 0
    179c:	02 c0       	rjmp	.+4      	; 0x17a2 <DIO_Set_Pin_Direction+0x62>
    179e:	88 0f       	add	r24, r24
    17a0:	99 1f       	adc	r25, r25
    17a2:	6a 95       	dec	r22
    17a4:	e2 f7       	brpl	.-8      	; 0x179e <DIO_Set_Pin_Direction+0x5e>
    17a6:	82 2b       	or	r24, r18
    17a8:	81 bb       	out	0x11, r24	; 17
    17aa:	08 95       	ret
    17ac:	41 11       	cpse	r20, r1
    17ae:	37 c0       	rjmp	.+110    	; 0x181e <DIO_Set_Pin_Direction+0xde>
    17b0:	81 30       	cpi	r24, 0x01	; 1
    17b2:	91 f0       	breq	.+36     	; 0x17d8 <DIO_Set_Pin_Direction+0x98>
    17b4:	28 f0       	brcs	.+10     	; 0x17c0 <DIO_Set_Pin_Direction+0x80>
    17b6:	82 30       	cpi	r24, 0x02	; 2
    17b8:	d9 f0       	breq	.+54     	; 0x17f0 <DIO_Set_Pin_Direction+0xb0>
    17ba:	83 30       	cpi	r24, 0x03	; 3
    17bc:	29 f1       	breq	.+74     	; 0x1808 <DIO_Set_Pin_Direction+0xc8>
    17be:	08 95       	ret
    17c0:	2a b3       	in	r18, 0x1a	; 26
    17c2:	81 e0       	ldi	r24, 0x01	; 1
    17c4:	90 e0       	ldi	r25, 0x00	; 0
    17c6:	02 c0       	rjmp	.+4      	; 0x17cc <DIO_Set_Pin_Direction+0x8c>
    17c8:	88 0f       	add	r24, r24
    17ca:	99 1f       	adc	r25, r25
    17cc:	6a 95       	dec	r22
    17ce:	e2 f7       	brpl	.-8      	; 0x17c8 <DIO_Set_Pin_Direction+0x88>
    17d0:	80 95       	com	r24
    17d2:	82 23       	and	r24, r18
    17d4:	8a bb       	out	0x1a, r24	; 26
    17d6:	08 95       	ret
    17d8:	27 b3       	in	r18, 0x17	; 23
    17da:	81 e0       	ldi	r24, 0x01	; 1
    17dc:	90 e0       	ldi	r25, 0x00	; 0
    17de:	02 c0       	rjmp	.+4      	; 0x17e4 <DIO_Set_Pin_Direction+0xa4>
    17e0:	88 0f       	add	r24, r24
    17e2:	99 1f       	adc	r25, r25
    17e4:	6a 95       	dec	r22
    17e6:	e2 f7       	brpl	.-8      	; 0x17e0 <DIO_Set_Pin_Direction+0xa0>
    17e8:	80 95       	com	r24
    17ea:	82 23       	and	r24, r18
    17ec:	87 bb       	out	0x17, r24	; 23
    17ee:	08 95       	ret
    17f0:	24 b3       	in	r18, 0x14	; 20
    17f2:	81 e0       	ldi	r24, 0x01	; 1
    17f4:	90 e0       	ldi	r25, 0x00	; 0
    17f6:	02 c0       	rjmp	.+4      	; 0x17fc <DIO_Set_Pin_Direction+0xbc>
    17f8:	88 0f       	add	r24, r24
    17fa:	99 1f       	adc	r25, r25
    17fc:	6a 95       	dec	r22
    17fe:	e2 f7       	brpl	.-8      	; 0x17f8 <DIO_Set_Pin_Direction+0xb8>
    1800:	80 95       	com	r24
    1802:	82 23       	and	r24, r18
    1804:	84 bb       	out	0x14, r24	; 20
    1806:	08 95       	ret
    1808:	21 b3       	in	r18, 0x11	; 17
    180a:	81 e0       	ldi	r24, 0x01	; 1
    180c:	90 e0       	ldi	r25, 0x00	; 0
    180e:	02 c0       	rjmp	.+4      	; 0x1814 <DIO_Set_Pin_Direction+0xd4>
    1810:	88 0f       	add	r24, r24
    1812:	99 1f       	adc	r25, r25
    1814:	6a 95       	dec	r22
    1816:	e2 f7       	brpl	.-8      	; 0x1810 <DIO_Set_Pin_Direction+0xd0>
    1818:	80 95       	com	r24
    181a:	82 23       	and	r24, r18
    181c:	81 bb       	out	0x11, r24	; 17
    181e:	08 95       	ret

00001820 <DIO_Set_Pin_Output>:
    1820:	41 30       	cpi	r20, 0x01	; 1
    1822:	a1 f5       	brne	.+104    	; 0x188c <DIO_Set_Pin_Output+0x6c>
    1824:	81 30       	cpi	r24, 0x01	; 1
    1826:	89 f0       	breq	.+34     	; 0x184a <DIO_Set_Pin_Output+0x2a>
    1828:	28 f0       	brcs	.+10     	; 0x1834 <DIO_Set_Pin_Output+0x14>
    182a:	82 30       	cpi	r24, 0x02	; 2
    182c:	c9 f0       	breq	.+50     	; 0x1860 <DIO_Set_Pin_Output+0x40>
    182e:	83 30       	cpi	r24, 0x03	; 3
    1830:	11 f1       	breq	.+68     	; 0x1876 <DIO_Set_Pin_Output+0x56>
    1832:	08 95       	ret
    1834:	2b b3       	in	r18, 0x1b	; 27
    1836:	81 e0       	ldi	r24, 0x01	; 1
    1838:	90 e0       	ldi	r25, 0x00	; 0
    183a:	02 c0       	rjmp	.+4      	; 0x1840 <DIO_Set_Pin_Output+0x20>
    183c:	88 0f       	add	r24, r24
    183e:	99 1f       	adc	r25, r25
    1840:	6a 95       	dec	r22
    1842:	e2 f7       	brpl	.-8      	; 0x183c <DIO_Set_Pin_Output+0x1c>
    1844:	82 2b       	or	r24, r18
    1846:	8b bb       	out	0x1b, r24	; 27
    1848:	08 95       	ret
    184a:	28 b3       	in	r18, 0x18	; 24
    184c:	81 e0       	ldi	r24, 0x01	; 1
    184e:	90 e0       	ldi	r25, 0x00	; 0
    1850:	02 c0       	rjmp	.+4      	; 0x1856 <DIO_Set_Pin_Output+0x36>
    1852:	88 0f       	add	r24, r24
    1854:	99 1f       	adc	r25, r25
    1856:	6a 95       	dec	r22
    1858:	e2 f7       	brpl	.-8      	; 0x1852 <DIO_Set_Pin_Output+0x32>
    185a:	82 2b       	or	r24, r18
    185c:	88 bb       	out	0x18, r24	; 24
    185e:	08 95       	ret
    1860:	25 b3       	in	r18, 0x15	; 21
    1862:	81 e0       	ldi	r24, 0x01	; 1
    1864:	90 e0       	ldi	r25, 0x00	; 0
    1866:	02 c0       	rjmp	.+4      	; 0x186c <DIO_Set_Pin_Output+0x4c>
    1868:	88 0f       	add	r24, r24
    186a:	99 1f       	adc	r25, r25
    186c:	6a 95       	dec	r22
    186e:	e2 f7       	brpl	.-8      	; 0x1868 <DIO_Set_Pin_Output+0x48>
    1870:	82 2b       	or	r24, r18
    1872:	85 bb       	out	0x15, r24	; 21
    1874:	08 95       	ret
    1876:	22 b3       	in	r18, 0x12	; 18
    1878:	81 e0       	ldi	r24, 0x01	; 1
    187a:	90 e0       	ldi	r25, 0x00	; 0
    187c:	02 c0       	rjmp	.+4      	; 0x1882 <DIO_Set_Pin_Output+0x62>
    187e:	88 0f       	add	r24, r24
    1880:	99 1f       	adc	r25, r25
    1882:	6a 95       	dec	r22
    1884:	e2 f7       	brpl	.-8      	; 0x187e <DIO_Set_Pin_Output+0x5e>
    1886:	82 2b       	or	r24, r18
    1888:	82 bb       	out	0x12, r24	; 18
    188a:	08 95       	ret
    188c:	41 11       	cpse	r20, r1
    188e:	38 c0       	rjmp	.+112    	; 0x1900 <DIO_Set_Pin_Output+0xe0>
    1890:	81 30       	cpi	r24, 0x01	; 1
    1892:	91 f0       	breq	.+36     	; 0x18b8 <DIO_Set_Pin_Output+0x98>
    1894:	28 f0       	brcs	.+10     	; 0x18a0 <DIO_Set_Pin_Output+0x80>
    1896:	82 30       	cpi	r24, 0x02	; 2
    1898:	d9 f0       	breq	.+54     	; 0x18d0 <DIO_Set_Pin_Output+0xb0>
    189a:	83 30       	cpi	r24, 0x03	; 3
    189c:	29 f1       	breq	.+74     	; 0x18e8 <DIO_Set_Pin_Output+0xc8>
    189e:	08 95       	ret
    18a0:	2b b3       	in	r18, 0x1b	; 27
    18a2:	81 e0       	ldi	r24, 0x01	; 1
    18a4:	90 e0       	ldi	r25, 0x00	; 0
    18a6:	02 c0       	rjmp	.+4      	; 0x18ac <DIO_Set_Pin_Output+0x8c>
    18a8:	88 0f       	add	r24, r24
    18aa:	99 1f       	adc	r25, r25
    18ac:	6a 95       	dec	r22
    18ae:	e2 f7       	brpl	.-8      	; 0x18a8 <DIO_Set_Pin_Output+0x88>
    18b0:	80 95       	com	r24
    18b2:	82 23       	and	r24, r18
    18b4:	8b bb       	out	0x1b, r24	; 27
    18b6:	08 95       	ret
    18b8:	28 b3       	in	r18, 0x18	; 24
    18ba:	81 e0       	ldi	r24, 0x01	; 1
    18bc:	90 e0       	ldi	r25, 0x00	; 0
    18be:	02 c0       	rjmp	.+4      	; 0x18c4 <DIO_Set_Pin_Output+0xa4>
    18c0:	88 0f       	add	r24, r24
    18c2:	99 1f       	adc	r25, r25
    18c4:	6a 95       	dec	r22
    18c6:	e2 f7       	brpl	.-8      	; 0x18c0 <DIO_Set_Pin_Output+0xa0>
    18c8:	80 95       	com	r24
    18ca:	82 23       	and	r24, r18
    18cc:	88 bb       	out	0x18, r24	; 24
    18ce:	08 95       	ret
    18d0:	25 b3       	in	r18, 0x15	; 21
    18d2:	81 e0       	ldi	r24, 0x01	; 1
    18d4:	90 e0       	ldi	r25, 0x00	; 0
    18d6:	02 c0       	rjmp	.+4      	; 0x18dc <DIO_Set_Pin_Output+0xbc>
    18d8:	88 0f       	add	r24, r24
    18da:	99 1f       	adc	r25, r25
    18dc:	6a 95       	dec	r22
    18de:	e2 f7       	brpl	.-8      	; 0x18d8 <DIO_Set_Pin_Output+0xb8>
    18e0:	80 95       	com	r24
    18e2:	82 23       	and	r24, r18
    18e4:	85 bb       	out	0x15, r24	; 21
    18e6:	08 95       	ret
    18e8:	22 b3       	in	r18, 0x12	; 18
    18ea:	81 e0       	ldi	r24, 0x01	; 1
    18ec:	90 e0       	ldi	r25, 0x00	; 0
    18ee:	02 c0       	rjmp	.+4      	; 0x18f4 <DIO_Set_Pin_Output+0xd4>
    18f0:	88 0f       	add	r24, r24
    18f2:	99 1f       	adc	r25, r25
    18f4:	6a 95       	dec	r22
    18f6:	e2 f7       	brpl	.-8      	; 0x18f0 <DIO_Set_Pin_Output+0xd0>
    18f8:	80 95       	com	r24
    18fa:	82 23       	and	r24, r18
    18fc:	82 bb       	out	0x12, r24	; 18
    18fe:	08 95       	ret
    1900:	42 30       	cpi	r20, 0x02	; 2
    1902:	99 f5       	brne	.+102    	; 0x196a <DIO_Set_Pin_Output+0x14a>
    1904:	81 30       	cpi	r24, 0x01	; 1
    1906:	89 f0       	breq	.+34     	; 0x192a <DIO_Set_Pin_Output+0x10a>
    1908:	28 f0       	brcs	.+10     	; 0x1914 <DIO_Set_Pin_Output+0xf4>
    190a:	82 30       	cpi	r24, 0x02	; 2
    190c:	c9 f0       	breq	.+50     	; 0x1940 <DIO_Set_Pin_Output+0x120>
    190e:	83 30       	cpi	r24, 0x03	; 3
    1910:	11 f1       	breq	.+68     	; 0x1956 <DIO_Set_Pin_Output+0x136>
    1912:	08 95       	ret
    1914:	2b b3       	in	r18, 0x1b	; 27
    1916:	81 e0       	ldi	r24, 0x01	; 1
    1918:	90 e0       	ldi	r25, 0x00	; 0
    191a:	02 c0       	rjmp	.+4      	; 0x1920 <DIO_Set_Pin_Output+0x100>
    191c:	88 0f       	add	r24, r24
    191e:	99 1f       	adc	r25, r25
    1920:	6a 95       	dec	r22
    1922:	e2 f7       	brpl	.-8      	; 0x191c <DIO_Set_Pin_Output+0xfc>
    1924:	82 27       	eor	r24, r18
    1926:	8b bb       	out	0x1b, r24	; 27
    1928:	08 95       	ret
    192a:	28 b3       	in	r18, 0x18	; 24
    192c:	81 e0       	ldi	r24, 0x01	; 1
    192e:	90 e0       	ldi	r25, 0x00	; 0
    1930:	02 c0       	rjmp	.+4      	; 0x1936 <DIO_Set_Pin_Output+0x116>
    1932:	88 0f       	add	r24, r24
    1934:	99 1f       	adc	r25, r25
    1936:	6a 95       	dec	r22
    1938:	e2 f7       	brpl	.-8      	; 0x1932 <DIO_Set_Pin_Output+0x112>
    193a:	82 27       	eor	r24, r18
    193c:	88 bb       	out	0x18, r24	; 24
    193e:	08 95       	ret
    1940:	25 b3       	in	r18, 0x15	; 21
    1942:	81 e0       	ldi	r24, 0x01	; 1
    1944:	90 e0       	ldi	r25, 0x00	; 0
    1946:	02 c0       	rjmp	.+4      	; 0x194c <DIO_Set_Pin_Output+0x12c>
    1948:	88 0f       	add	r24, r24
    194a:	99 1f       	adc	r25, r25
    194c:	6a 95       	dec	r22
    194e:	e2 f7       	brpl	.-8      	; 0x1948 <DIO_Set_Pin_Output+0x128>
    1950:	82 27       	eor	r24, r18
    1952:	85 bb       	out	0x15, r24	; 21
    1954:	08 95       	ret
    1956:	22 b3       	in	r18, 0x12	; 18
    1958:	81 e0       	ldi	r24, 0x01	; 1
    195a:	90 e0       	ldi	r25, 0x00	; 0
    195c:	02 c0       	rjmp	.+4      	; 0x1962 <DIO_Set_Pin_Output+0x142>
    195e:	88 0f       	add	r24, r24
    1960:	99 1f       	adc	r25, r25
    1962:	6a 95       	dec	r22
    1964:	e2 f7       	brpl	.-8      	; 0x195e <DIO_Set_Pin_Output+0x13e>
    1966:	82 27       	eor	r24, r18
    1968:	82 bb       	out	0x12, r24	; 18
    196a:	08 95       	ret

0000196c <DIO_Get_Pin_Value>:
    196c:	81 30       	cpi	r24, 0x01	; 1
    196e:	79 f0       	breq	.+30     	; 0x198e <DIO_Get_Pin_Value+0x22>
    1970:	28 f0       	brcs	.+10     	; 0x197c <DIO_Get_Pin_Value+0x10>
    1972:	82 30       	cpi	r24, 0x02	; 2
    1974:	a9 f0       	breq	.+42     	; 0x19a0 <DIO_Get_Pin_Value+0x34>
    1976:	83 30       	cpi	r24, 0x03	; 3
    1978:	e1 f0       	breq	.+56     	; 0x19b2 <DIO_Get_Pin_Value+0x46>
    197a:	24 c0       	rjmp	.+72     	; 0x19c4 <DIO_Get_Pin_Value+0x58>
    197c:	89 b3       	in	r24, 0x19	; 25
    197e:	90 e0       	ldi	r25, 0x00	; 0
    1980:	02 c0       	rjmp	.+4      	; 0x1986 <DIO_Get_Pin_Value+0x1a>
    1982:	95 95       	asr	r25
    1984:	87 95       	ror	r24
    1986:	6a 95       	dec	r22
    1988:	e2 f7       	brpl	.-8      	; 0x1982 <DIO_Get_Pin_Value+0x16>
    198a:	81 70       	andi	r24, 0x01	; 1
    198c:	08 95       	ret
    198e:	86 b3       	in	r24, 0x16	; 22
    1990:	90 e0       	ldi	r25, 0x00	; 0
    1992:	02 c0       	rjmp	.+4      	; 0x1998 <DIO_Get_Pin_Value+0x2c>
    1994:	95 95       	asr	r25
    1996:	87 95       	ror	r24
    1998:	6a 95       	dec	r22
    199a:	e2 f7       	brpl	.-8      	; 0x1994 <DIO_Get_Pin_Value+0x28>
    199c:	81 70       	andi	r24, 0x01	; 1
    199e:	08 95       	ret
    19a0:	83 b3       	in	r24, 0x13	; 19
    19a2:	90 e0       	ldi	r25, 0x00	; 0
    19a4:	02 c0       	rjmp	.+4      	; 0x19aa <DIO_Get_Pin_Value+0x3e>
    19a6:	95 95       	asr	r25
    19a8:	87 95       	ror	r24
    19aa:	6a 95       	dec	r22
    19ac:	e2 f7       	brpl	.-8      	; 0x19a6 <DIO_Get_Pin_Value+0x3a>
    19ae:	81 70       	andi	r24, 0x01	; 1
    19b0:	08 95       	ret
    19b2:	80 b3       	in	r24, 0x10	; 16
    19b4:	90 e0       	ldi	r25, 0x00	; 0
    19b6:	02 c0       	rjmp	.+4      	; 0x19bc <DIO_Get_Pin_Value+0x50>
    19b8:	95 95       	asr	r25
    19ba:	87 95       	ror	r24
    19bc:	6a 95       	dec	r22
    19be:	e2 f7       	brpl	.-8      	; 0x19b8 <DIO_Get_Pin_Value+0x4c>
    19c0:	81 70       	andi	r24, 0x01	; 1
    19c2:	08 95       	ret
    19c4:	80 e0       	ldi	r24, 0x00	; 0
    19c6:	08 95       	ret

000019c8 <GIE_Enable>:
    19c8:	8f b7       	in	r24, 0x3f	; 63
    19ca:	80 68       	ori	r24, 0x80	; 128
    19cc:	8f bf       	out	0x3f, r24	; 63
    19ce:	08 95       	ret

000019d0 <GIE_Disable>:
    19d0:	8f b7       	in	r24, 0x3f	; 63
    19d2:	8f 77       	andi	r24, 0x7F	; 127
    19d4:	8f bf       	out	0x3f, r24	; 63
    19d6:	08 95       	ret

000019d8 <Timer0_Init>:
	#elif (Timer0_OC0_Pin == Timer_COM_Pin_SET)
	Set(TCCR0_Reg,5);  Set(TCCR0_Reg,4);
	#endif
}
void Timer0_Set_TCNT0_Reg(uint8 value)   {    TCNT0_Reg= value;    }//Timer Register
void Timer0_Set_OCR0_Reg(uint8 value)    {    OCR0_Reg = value;    }//Output Compare Register
    19d8:	83 b7       	in	r24, 0x33	; 51
    19da:	8f 7b       	andi	r24, 0xBF	; 191
    19dc:	83 bf       	out	0x33, r24	; 51
    19de:	83 b7       	in	r24, 0x33	; 51
    19e0:	87 7f       	andi	r24, 0xF7	; 247
    19e2:	83 bf       	out	0x33, r24	; 51
    19e4:	83 b7       	in	r24, 0x33	; 51
    19e6:	8b 7f       	andi	r24, 0xFB	; 251
    19e8:	83 bf       	out	0x33, r24	; 51
    19ea:	83 b7       	in	r24, 0x33	; 51
    19ec:	8d 7f       	andi	r24, 0xFD	; 253
    19ee:	83 bf       	out	0x33, r24	; 51
    19f0:	83 b7       	in	r24, 0x33	; 51
    19f2:	81 60       	ori	r24, 0x01	; 1
    19f4:	83 bf       	out	0x33, r24	; 51
    19f6:	83 b7       	in	r24, 0x33	; 51
    19f8:	8f 7d       	andi	r24, 0xDF	; 223
    19fa:	83 bf       	out	0x33, r24	; 51
    19fc:	83 b7       	in	r24, 0x33	; 51
    19fe:	8f 7e       	andi	r24, 0xEF	; 239
    1a00:	83 bf       	out	0x33, r24	; 51
    1a02:	08 95       	ret

00001a04 <Timer0_Enable_Overflow_Interrupt>:
void Timer0_Enable_Overflow_Interrupt()  {    Set(TIMSK_Reg,0);    }
    1a04:	89 b7       	in	r24, 0x39	; 57
    1a06:	81 60       	ori	r24, 0x01	; 1
    1a08:	89 bf       	out	0x39, r24	; 57
    1a0a:	08 95       	ret

00001a0c <TWI_Init>:
    1a0c:	8a e0       	ldi	r24, 0x0A	; 10
    1a0e:	80 b9       	out	0x00, r24	; 0
    1a10:	81 b1       	in	r24, 0x01	; 1
    1a12:	81 60       	ori	r24, 0x01	; 1
    1a14:	81 b9       	out	0x01, r24	; 1
    1a16:	81 b1       	in	r24, 0x01	; 1
    1a18:	8d 7f       	andi	r24, 0xFD	; 253
    1a1a:	81 b9       	out	0x01, r24	; 1
    1a1c:	86 b7       	in	r24, 0x36	; 54
    1a1e:	84 60       	ori	r24, 0x04	; 4
    1a20:	86 bf       	out	0x36, r24	; 54
    1a22:	08 95       	ret

00001a24 <TWI_Check_Status>:
    1a24:	21 b1       	in	r18, 0x01	; 1
    1a26:	90 e0       	ldi	r25, 0x00	; 0
    1a28:	28 7f       	andi	r18, 0xF8	; 248
    1a2a:	30 e0       	ldi	r19, 0x00	; 0
    1a2c:	82 17       	cp	r24, r18
    1a2e:	93 07       	cpc	r25, r19
    1a30:	11 f4       	brne	.+4      	; 0x1a36 <TWI_Check_Status+0x12>
    1a32:	81 e0       	ldi	r24, 0x01	; 1
    1a34:	08 95       	ret
    1a36:	80 e0       	ldi	r24, 0x00	; 0
    1a38:	08 95       	ret

00001a3a <TWI_Send_Stop>:
    1a3a:	84 e9       	ldi	r24, 0x94	; 148
    1a3c:	86 bf       	out	0x36, r24	; 54
    1a3e:	08 95       	ret

00001a40 <TWI_MSTR_Send_Start>:
    1a40:	84 ea       	ldi	r24, 0xA4	; 164
    1a42:	86 bf       	out	0x36, r24	; 54
    1a44:	06 b6       	in	r0, 0x36	; 54
    1a46:	07 fe       	sbrs	r0, 7
    1a48:	fd cf       	rjmp	.-6      	; 0x1a44 <TWI_MSTR_Send_Start+0x4>
    1a4a:	08 95       	ret

00001a4c <TWI_Receive_Data>:
    1a4c:	81 30       	cpi	r24, 0x01	; 1
    1a4e:	19 f4       	brne	.+6      	; 0x1a56 <TWI_Receive_Data+0xa>
    1a50:	86 b7       	in	r24, 0x36	; 54
    1a52:	80 64       	ori	r24, 0x40	; 64
    1a54:	86 bf       	out	0x36, r24	; 54
    1a56:	84 e8       	ldi	r24, 0x84	; 132
    1a58:	86 bf       	out	0x36, r24	; 54
    1a5a:	06 b6       	in	r0, 0x36	; 54
    1a5c:	07 fe       	sbrs	r0, 7
    1a5e:	fd cf       	rjmp	.-6      	; 0x1a5a <TWI_Receive_Data+0xe>
    1a60:	83 b1       	in	r24, 0x03	; 3
    1a62:	08 95       	ret

00001a64 <TWI_Send_Data>:
    1a64:	83 b9       	out	0x03, r24	; 3
    1a66:	84 e8       	ldi	r24, 0x84	; 132
    1a68:	86 bf       	out	0x36, r24	; 54
    1a6a:	06 b6       	in	r0, 0x36	; 54
    1a6c:	07 fe       	sbrs	r0, 7
    1a6e:	fd cf       	rjmp	.-6      	; 0x1a6a <TWI_Send_Data+0x6>
    1a70:	08 95       	ret

00001a72 <UART_Enable_RX_Interrupt>:
}
uint32 UART_Recieve_Number_Polling_32(void){
	uint32 Number;
	Number = 0;
	return Number;
}
    1a72:	8a b1       	in	r24, 0x0a	; 10
    1a74:	80 68       	ori	r24, 0x80	; 128
    1a76:	8a b9       	out	0x0a, r24	; 10
    1a78:	08 95       	ret

00001a7a <UART_Init>:
    1a7a:	8a b1       	in	r24, 0x0a	; 10
    1a7c:	8b 7f       	andi	r24, 0xFB	; 251
    1a7e:	8a b9       	out	0x0a, r24	; 10
    1a80:	80 b5       	in	r24, 0x20	; 32
    1a82:	84 60       	ori	r24, 0x04	; 4
    1a84:	80 bd       	out	0x20, r24	; 32
    1a86:	80 b5       	in	r24, 0x20	; 32
    1a88:	82 60       	ori	r24, 0x02	; 2
    1a8a:	80 bd       	out	0x20, r24	; 32
    1a8c:	80 b5       	in	r24, 0x20	; 32
    1a8e:	8f 7b       	andi	r24, 0xBF	; 191
    1a90:	80 bd       	out	0x20, r24	; 32
    1a92:	80 b5       	in	r24, 0x20	; 32
    1a94:	80 68       	ori	r24, 0x80	; 128
    1a96:	80 bd       	out	0x20, r24	; 32
    1a98:	80 b5       	in	r24, 0x20	; 32
    1a9a:	8f 7d       	andi	r24, 0xDF	; 223
    1a9c:	80 bd       	out	0x20, r24	; 32
    1a9e:	80 b5       	in	r24, 0x20	; 32
    1aa0:	8f 7e       	andi	r24, 0xEF	; 239
    1aa2:	80 bd       	out	0x20, r24	; 32
    1aa4:	80 b5       	in	r24, 0x20	; 32
    1aa6:	87 7f       	andi	r24, 0xF7	; 247
    1aa8:	80 bd       	out	0x20, r24	; 32
    1aaa:	10 bc       	out	0x20, r1	; 32
    1aac:	87 e6       	ldi	r24, 0x67	; 103
    1aae:	89 b9       	out	0x09, r24	; 9
    1ab0:	8a b1       	in	r24, 0x0a	; 10
    1ab2:	80 61       	ori	r24, 0x10	; 16
    1ab4:	8a b9       	out	0x0a, r24	; 10
    1ab6:	8a b1       	in	r24, 0x0a	; 10
    1ab8:	88 60       	ori	r24, 0x08	; 8
    1aba:	8a b9       	out	0x0a, r24	; 10
    1abc:	8a b1       	in	r24, 0x0a	; 10
    1abe:	80 68       	ori	r24, 0x80	; 128
    1ac0:	8a b9       	out	0x0a, r24	; 10
    1ac2:	08 95       	ret

00001ac4 <UART_Send_Byte_Polling_8>:
    1ac4:	5d 9b       	sbis	0x0b, 5	; 11
    1ac6:	fe cf       	rjmp	.-4      	; 0x1ac4 <UART_Send_Byte_Polling_8>
    1ac8:	8c b9       	out	0x0c, r24	; 12
    1aca:	08 95       	ret

00001acc <UART_Send_String_Polling_8>:
    1acc:	0f 93       	push	r16
    1ace:	1f 93       	push	r17
    1ad0:	cf 93       	push	r28
    1ad2:	8c 01       	movw	r16, r24
    1ad4:	c0 e0       	ldi	r28, 0x00	; 0
    1ad6:	03 c0       	rjmp	.+6      	; 0x1ade <UART_Send_String_Polling_8+0x12>
    1ad8:	0e 94 62 0d 	call	0x1ac4	; 0x1ac4 <UART_Send_Byte_Polling_8>
    1adc:	cf 5f       	subi	r28, 0xFF	; 255
    1ade:	f8 01       	movw	r30, r16
    1ae0:	ec 0f       	add	r30, r28
    1ae2:	f1 1d       	adc	r31, r1
    1ae4:	80 81       	ld	r24, Z
    1ae6:	81 11       	cpse	r24, r1
    1ae8:	f7 cf       	rjmp	.-18     	; 0x1ad8 <UART_Send_String_Polling_8+0xc>
    1aea:	cf 91       	pop	r28
    1aec:	1f 91       	pop	r17
    1aee:	0f 91       	pop	r16
    1af0:	08 95       	ret

00001af2 <UART_Receive_Byte_8>:
    1af2:	5f 9b       	sbis	0x0b, 7	; 11
    1af4:	fe cf       	rjmp	.-4      	; 0x1af2 <UART_Receive_Byte_8>
    1af6:	8c b1       	in	r24, 0x0c	; 12
    1af8:	08 95       	ret

00001afa <UART_Recieve_String_8>:
    1afa:	ef 92       	push	r14
    1afc:	ff 92       	push	r15
    1afe:	1f 93       	push	r17
    1b00:	cf 93       	push	r28
    1b02:	df 93       	push	r29
    1b04:	7c 01       	movw	r14, r24
    1b06:	10 e0       	ldi	r17, 0x00	; 0
    1b08:	e7 01       	movw	r28, r14
    1b0a:	c1 0f       	add	r28, r17
    1b0c:	d1 1d       	adc	r29, r1
    1b0e:	0e 94 79 0d 	call	0x1af2	; 0x1af2 <UART_Receive_Byte_8>
    1b12:	88 83       	st	Y, r24
    1b14:	8d 30       	cpi	r24, 0x0D	; 13
    1b16:	09 f4       	brne	.+2      	; 0x1b1a <UART_Recieve_String_8+0x20>
    1b18:	18 82       	st	Y, r1
    1b1a:	88 81       	ld	r24, Y
    1b1c:	8a 30       	cpi	r24, 0x0A	; 10
    1b1e:	11 f4       	brne	.+4      	; 0x1b24 <UART_Recieve_String_8+0x2a>
    1b20:	18 82       	st	Y, r1
    1b22:	02 c0       	rjmp	.+4      	; 0x1b28 <UART_Recieve_String_8+0x2e>
    1b24:	1f 5f       	subi	r17, 0xFF	; 255
    1b26:	f0 cf       	rjmp	.-32     	; 0x1b08 <UART_Recieve_String_8+0xe>
    1b28:	df 91       	pop	r29
    1b2a:	cf 91       	pop	r28
    1b2c:	1f 91       	pop	r17
    1b2e:	ff 90       	pop	r15
    1b30:	ef 90       	pop	r14
    1b32:	08 95       	ret

00001b34 <UART_Show_Request_UserID>:


void UART_Show_Request_UserID(){
	UART_Send_String_Polling_8(" Enter UserID:(1~99)\n");
    1b34:	84 ec       	ldi	r24, 0xC4	; 196
    1b36:	93 e0       	ldi	r25, 0x03	; 3
    1b38:	0e 94 66 0d 	call	0x1acc	; 0x1acc <UART_Send_String_Polling_8>
    1b3c:	08 95       	ret

00001b3e <UART_Show_Request_Password>:
}
void UART_Show_Request_Password(){
	UART_Send_String_Polling_8(" Enter Password:\n");
    1b3e:	8a ed       	ldi	r24, 0xDA	; 218
    1b40:	93 e0       	ldi	r25, 0x03	; 3
    1b42:	0e 94 66 0d 	call	0x1acc	; 0x1acc <UART_Send_String_Polling_8>
    1b46:	08 95       	ret

00001b48 <UART_Show_Invalid>:
}
void UART_Show_Invalid(){
	UART_Send_String_Polling_8("Invalid input  try Again \n");
    1b48:	8c ee       	ldi	r24, 0xEC	; 236
    1b4a:	93 e0       	ldi	r25, 0x03	; 3
    1b4c:	0e 94 66 0d 	call	0x1acc	; 0x1acc <UART_Send_String_Polling_8>
    1b50:	08 95       	ret

00001b52 <UART_Show_MainMenu>:
}
void UART_Show_MainMenu(){
	UART_Send_String_Polling_8("Choose Option: \n");
    1b52:	87 e0       	ldi	r24, 0x07	; 7
    1b54:	94 e0       	ldi	r25, 0x04	; 4
    1b56:	0e 94 66 0d 	call	0x1acc	; 0x1acc <UART_Send_String_Polling_8>
	UART_Send_String_Polling_8("(1) Control Led \n");
    1b5a:	88 e1       	ldi	r24, 0x18	; 24
    1b5c:	94 e0       	ldi	r25, 0x04	; 4
    1b5e:	0e 94 66 0d 	call	0x1acc	; 0x1acc <UART_Send_String_Polling_8>
	UART_Send_String_Polling_8("(2) Control AC \n");
    1b62:	8a e2       	ldi	r24, 0x2A	; 42
    1b64:	94 e0       	ldi	r25, 0x04	; 4
    1b66:	0e 94 66 0d 	call	0x1acc	; 0x1acc <UART_Send_String_Polling_8>
	UART_Send_String_Polling_8("(3) Control Door \n");
    1b6a:	8b e3       	ldi	r24, 0x3B	; 59
    1b6c:	94 e0       	ldi	r25, 0x04	; 4
    1b6e:	0e 94 66 0d 	call	0x1acc	; 0x1acc <UART_Send_String_Polling_8>
	UART_Send_String_Polling_8("(4) Control Dimmer \n");
    1b72:	8e e4       	ldi	r24, 0x4E	; 78
    1b74:	94 e0       	ldi	r25, 0x04	; 4
    1b76:	0e 94 66 0d 	call	0x1acc	; 0x1acc <UART_Send_String_Polling_8>
	UART_Send_String_Polling_8("(5) Show Users list \n");
    1b7a:	83 e6       	ldi	r24, 0x63	; 99
    1b7c:	94 e0       	ldi	r25, 0x04	; 4
    1b7e:	0e 94 66 0d 	call	0x1acc	; 0x1acc <UART_Send_String_Polling_8>
	UART_Send_String_Polling_8("(6) Create New User \n");
    1b82:	89 e7       	ldi	r24, 0x79	; 121
    1b84:	94 e0       	ldi	r25, 0x04	; 4
    1b86:	0e 94 66 0d 	call	0x1acc	; 0x1acc <UART_Send_String_Polling_8>
	UART_Send_String_Polling_8("(7) Delete User \n");
    1b8a:	8f e8       	ldi	r24, 0x8F	; 143
    1b8c:	94 e0       	ldi	r25, 0x04	; 4
    1b8e:	0e 94 66 0d 	call	0x1acc	; 0x1acc <UART_Send_String_Polling_8>
    1b92:	08 95       	ret

00001b94 <UART_Show_Control_Leds>:
}
void UART_Show_Control_Leds(){
	UART_Send_String_Polling_8("(1) Toggle Led 1 \n");
    1b94:	81 ea       	ldi	r24, 0xA1	; 161
    1b96:	94 e0       	ldi	r25, 0x04	; 4
    1b98:	0e 94 66 0d 	call	0x1acc	; 0x1acc <UART_Send_String_Polling_8>
	UART_Send_String_Polling_8("(2) Toggle Led 2 \n");
    1b9c:	84 eb       	ldi	r24, 0xB4	; 180
    1b9e:	94 e0       	ldi	r25, 0x04	; 4
    1ba0:	0e 94 66 0d 	call	0x1acc	; 0x1acc <UART_Send_String_Polling_8>
	UART_Send_String_Polling_8("(3) Toggle Led 3 \n");
    1ba4:	87 ec       	ldi	r24, 0xC7	; 199
    1ba6:	94 e0       	ldi	r25, 0x04	; 4
    1ba8:	0e 94 66 0d 	call	0x1acc	; 0x1acc <UART_Send_String_Polling_8>
	UART_Send_String_Polling_8("(4) Toggle Led 4 \n");
    1bac:	8a ed       	ldi	r24, 0xDA	; 218
    1bae:	94 e0       	ldi	r25, 0x04	; 4
    1bb0:	0e 94 66 0d 	call	0x1acc	; 0x1acc <UART_Send_String_Polling_8>
	UART_Send_String_Polling_8("(5) Toggle Led 5 \n");
    1bb4:	8d ee       	ldi	r24, 0xED	; 237
    1bb6:	94 e0       	ldi	r25, 0x04	; 4
    1bb8:	0e 94 66 0d 	call	0x1acc	; 0x1acc <UART_Send_String_Polling_8>
	UART_Send_String_Polling_8("(0) Back \n");
    1bbc:	80 e0       	ldi	r24, 0x00	; 0
    1bbe:	95 e0       	ldi	r25, 0x05	; 5
    1bc0:	0e 94 66 0d 	call	0x1acc	; 0x1acc <UART_Send_String_Polling_8>
    1bc4:	08 95       	ret

00001bc6 <UART_Show_Control_AC>:
}
void UART_Show_Control_AC(){
	UART_Send_String_Polling_8("(1) AC Auto \n");
    1bc6:	8b e0       	ldi	r24, 0x0B	; 11
    1bc8:	95 e0       	ldi	r25, 0x05	; 5
    1bca:	0e 94 66 0d 	call	0x1acc	; 0x1acc <UART_Send_String_Polling_8>
	UART_Send_String_Polling_8("(2) AC Manual Turn Off \n");
    1bce:	89 e1       	ldi	r24, 0x19	; 25
    1bd0:	95 e0       	ldi	r25, 0x05	; 5
    1bd2:	0e 94 66 0d 	call	0x1acc	; 0x1acc <UART_Send_String_Polling_8>
	UART_Send_String_Polling_8("(3) AC Manual Turn On  \n");
    1bd6:	82 e3       	ldi	r24, 0x32	; 50
    1bd8:	95 e0       	ldi	r25, 0x05	; 5
    1bda:	0e 94 66 0d 	call	0x1acc	; 0x1acc <UART_Send_String_Polling_8>
	UART_Send_String_Polling_8("(0) Back \n");
    1bde:	80 e0       	ldi	r24, 0x00	; 0
    1be0:	95 e0       	ldi	r25, 0x05	; 5
    1be2:	0e 94 66 0d 	call	0x1acc	; 0x1acc <UART_Send_String_Polling_8>
    1be6:	08 95       	ret

00001be8 <UART_Show_Control_Door>:
}
void UART_Show_Control_Door(){
	UART_Send_String_Polling_8("(1) Open Door Lock \n");
    1be8:	8b e4       	ldi	r24, 0x4B	; 75
    1bea:	95 e0       	ldi	r25, 0x05	; 5
    1bec:	0e 94 66 0d 	call	0x1acc	; 0x1acc <UART_Send_String_Polling_8>
	UART_Send_String_Polling_8("(2) Close Door Lock \n");
    1bf0:	80 e6       	ldi	r24, 0x60	; 96
    1bf2:	95 e0       	ldi	r25, 0x05	; 5
    1bf4:	0e 94 66 0d 	call	0x1acc	; 0x1acc <UART_Send_String_Polling_8>
	UART_Send_String_Polling_8("(0) Back \n");
    1bf8:	80 e0       	ldi	r24, 0x00	; 0
    1bfa:	95 e0       	ldi	r25, 0x05	; 5
    1bfc:	0e 94 66 0d 	call	0x1acc	; 0x1acc <UART_Send_String_Polling_8>
    1c00:	08 95       	ret

00001c02 <UART_Show_Control_Dimmer>:

}
void UART_Show_Control_Dimmer(){
	UART_Send_String_Polling_8("(1) Dimmer Up \n");
    1c02:	86 e7       	ldi	r24, 0x76	; 118
    1c04:	95 e0       	ldi	r25, 0x05	; 5
    1c06:	0e 94 66 0d 	call	0x1acc	; 0x1acc <UART_Send_String_Polling_8>
	UART_Send_String_Polling_8("(2) Dimmer Down \n");
    1c0a:	86 e8       	ldi	r24, 0x86	; 134
    1c0c:	95 e0       	ldi	r25, 0x05	; 5
    1c0e:	0e 94 66 0d 	call	0x1acc	; 0x1acc <UART_Send_String_Polling_8>
	UART_Send_String_Polling_8("(3) Dimmer Off \n");
    1c12:	88 e9       	ldi	r24, 0x98	; 152
    1c14:	95 e0       	ldi	r25, 0x05	; 5
    1c16:	0e 94 66 0d 	call	0x1acc	; 0x1acc <UART_Send_String_Polling_8>
	UART_Send_String_Polling_8("(4) Dimmer On \n");
    1c1a:	89 ea       	ldi	r24, 0xA9	; 169
    1c1c:	95 e0       	ldi	r25, 0x05	; 5
    1c1e:	0e 94 66 0d 	call	0x1acc	; 0x1acc <UART_Send_String_Polling_8>
	UART_Send_String_Polling_8("(0) Back \n");
    1c22:	80 e0       	ldi	r24, 0x00	; 0
    1c24:	95 e0       	ldi	r25, 0x05	; 5
    1c26:	0e 94 66 0d 	call	0x1acc	; 0x1acc <UART_Send_String_Polling_8>
    1c2a:	08 95       	ret

00001c2c <UART_Show_User_List>:

}

void UART_Show_User_List(){
    1c2c:	1f 93       	push	r17
    1c2e:	cf 93       	push	r28
    1c30:	df 93       	push	r29
    1c32:	cd b7       	in	r28, 0x3d	; 61
    1c34:	de b7       	in	r29, 0x3e	; 62
    1c36:	28 97       	sbiw	r28, 0x08	; 8
    1c38:	0f b6       	in	r0, 0x3f	; 63
    1c3a:	f8 94       	cli
    1c3c:	de bf       	out	0x3e, r29	; 62
    1c3e:	0f be       	out	0x3f, r0	; 63
    1c40:	cd bf       	out	0x3d, r28	; 61
	sint8 Usernamex[8];
	for(uint8 id = 1;id<MAX_Users_Count;id++){
    1c42:	11 e0       	ldi	r17, 0x01	; 1
    1c44:	21 c0       	rjmp	.+66     	; 0x1c88 <UART_Show_User_List+0x5c>
		if(EEPROM_Read_UserID_Exist(id)){
    1c46:	81 2f       	mov	r24, r17
    1c48:	0e 94 18 07 	call	0xe30	; 0xe30 <EEPROM_Read_UserID_Exist>
    1c4c:	88 23       	and	r24, r24
    1c4e:	d9 f0       	breq	.+54     	; 0x1c86 <UART_Show_User_List+0x5a>
			UART_Send_String_Polling_8("UserID: ");
    1c50:	89 eb       	ldi	r24, 0xB9	; 185
    1c52:	95 e0       	ldi	r25, 0x05	; 5
    1c54:	0e 94 66 0d 	call	0x1acc	; 0x1acc <UART_Send_String_Polling_8>
			UART_Send_Byte_Polling_8(id + 48);
    1c58:	80 e3       	ldi	r24, 0x30	; 48
    1c5a:	81 0f       	add	r24, r17
    1c5c:	0e 94 62 0d 	call	0x1ac4	; 0x1ac4 <UART_Send_Byte_Polling_8>
			UART_Send_String_Polling_8(" Username: ");
    1c60:	8d ef       	ldi	r24, 0xFD	; 253
    1c62:	90 e0       	ldi	r25, 0x00	; 0
    1c64:	0e 94 66 0d 	call	0x1acc	; 0x1acc <UART_Send_String_Polling_8>
			EEPROM_Read_8Data(id,Usernamex,2);
    1c68:	42 e0       	ldi	r20, 0x02	; 2
    1c6a:	be 01       	movw	r22, r28
    1c6c:	6f 5f       	subi	r22, 0xFF	; 255
    1c6e:	7f 4f       	sbci	r23, 0xFF	; 255
    1c70:	81 2f       	mov	r24, r17
    1c72:	0e 94 01 07 	call	0xe02	; 0xe02 <EEPROM_Read_8Data>
			UART_Send_String_Polling_8(Usernamex);
    1c76:	ce 01       	movw	r24, r28
    1c78:	01 96       	adiw	r24, 0x01	; 1
    1c7a:	0e 94 66 0d 	call	0x1acc	; 0x1acc <UART_Send_String_Polling_8>
			UART_Send_String_Polling_8("\n");
    1c7e:	89 e4       	ldi	r24, 0x49	; 73
    1c80:	95 e0       	ldi	r25, 0x05	; 5
    1c82:	0e 94 66 0d 	call	0x1acc	; 0x1acc <UART_Send_String_Polling_8>

}

void UART_Show_User_List(){
	sint8 Usernamex[8];
	for(uint8 id = 1;id<MAX_Users_Count;id++){
    1c86:	1f 5f       	subi	r17, 0xFF	; 255
    1c88:	80 91 65 00 	lds	r24, 0x0065	; 0x800065 <MAX_Users_Count>
    1c8c:	18 17       	cp	r17, r24
    1c8e:	d8 f2       	brcs	.-74     	; 0x1c46 <UART_Show_User_List+0x1a>
			EEPROM_Read_8Data(id,Usernamex,2);
			UART_Send_String_Polling_8(Usernamex);
			UART_Send_String_Polling_8("\n");
 		}
	}
}
    1c90:	28 96       	adiw	r28, 0x08	; 8
    1c92:	0f b6       	in	r0, 0x3f	; 63
    1c94:	f8 94       	cli
    1c96:	de bf       	out	0x3e, r29	; 62
    1c98:	0f be       	out	0x3f, r0	; 63
    1c9a:	cd bf       	out	0x3d, r28	; 61
    1c9c:	df 91       	pop	r29
    1c9e:	cf 91       	pop	r28
    1ca0:	1f 91       	pop	r17
    1ca2:	08 95       	ret

00001ca4 <UART_Show_Delete_ID>:


void UART_Show_Delete_ID(){
	UART_Send_String_Polling_8("Enter UserID To Delete : \n");
    1ca4:	82 ec       	ldi	r24, 0xC2	; 194
    1ca6:	95 e0       	ldi	r25, 0x05	; 5
    1ca8:	0e 94 66 0d 	call	0x1acc	; 0x1acc <UART_Send_String_Polling_8>
    1cac:	08 95       	ret

00001cae <UART_Show_Request_NewUsername>:
}
void UART_Show_Request_NewUsername(){
	UART_Send_String_Polling_8("Enter The NewUser Username: \n");
    1cae:	8d ed       	ldi	r24, 0xDD	; 221
    1cb0:	95 e0       	ldi	r25, 0x05	; 5
    1cb2:	0e 94 66 0d 	call	0x1acc	; 0x1acc <UART_Send_String_Polling_8>
    1cb6:	08 95       	ret

00001cb8 <UART_Show_Request_NewUserPassword>:
}
void UART_Show_Request_NewUserPassword(){
	UART_Send_String_Polling_8("Enter The NewUser Password: \n");
    1cb8:	8b ef       	ldi	r24, 0xFB	; 251
    1cba:	95 e0       	ldi	r25, 0x05	; 5
    1cbc:	0e 94 66 0d 	call	0x1acc	; 0x1acc <UART_Send_String_Polling_8>
    1cc0:	08 95       	ret

00001cc2 <UART_Logged_OFF>:
}

void UART_Logged_OFF(){
	UART_Send_String_Polling_8("Logged off Success! \n");
    1cc2:	89 e1       	ldi	r24, 0x19	; 25
    1cc4:	96 e0       	ldi	r25, 0x06	; 6
    1cc6:	0e 94 66 0d 	call	0x1acc	; 0x1acc <UART_Send_String_Polling_8>
	UART_Show_Request_UserID();
    1cca:	0e 94 9a 0d 	call	0x1b34	; 0x1b34 <UART_Show_Request_UserID>
    1cce:	08 95       	ret

00001cd0 <UART_Choice_Handler_1>:
}
void UART_Choice_Handler_1(uint8 g_choice_1){
	switch(g_choice_1){
    1cd0:	90 e0       	ldi	r25, 0x00	; 0
    1cd2:	fc 01       	movw	r30, r24
    1cd4:	31 97       	sbiw	r30, 0x01	; 1
    1cd6:	e8 30       	cpi	r30, 0x08	; 8
    1cd8:	f1 05       	cpc	r31, r1
    1cda:	d8 f4       	brcc	.+54     	; 0x1d12 <UART_Choice_Handler_1+0x42>
    1cdc:	e1 5c       	subi	r30, 0xC1	; 193
    1cde:	ff 4f       	sbci	r31, 0xFF	; 255
    1ce0:	0c 94 98 0e 	jmp	0x1d30	; 0x1d30 <__tablejump2__>
		case 1:UART_Show_Control_Leds();break;		//NEXT EXIST
    1ce4:	0e 94 ca 0d 	call	0x1b94	; 0x1b94 <UART_Show_Control_Leds>
    1ce8:	08 95       	ret
		case 2:UART_Show_Control_AC();	break;		//NEXT EXIST
    1cea:	0e 94 e3 0d 	call	0x1bc6	; 0x1bc6 <UART_Show_Control_AC>
    1cee:	08 95       	ret
		case 3:UART_Show_Control_Door();break;		//NEXT EXIST
    1cf0:	0e 94 f4 0d 	call	0x1be8	; 0x1be8 <UART_Show_Control_Door>
    1cf4:	08 95       	ret
		case 4:UART_Show_Control_Dimmer();break;		//NEXT EXIST
    1cf6:	0e 94 01 0e 	call	0x1c02	; 0x1c02 <UART_Show_Control_Dimmer>
    1cfa:	08 95       	ret
		case 5:UART_Show_User_List();break;				// NO NEXT
    1cfc:	0e 94 16 0e 	call	0x1c2c	; 0x1c2c <UART_Show_User_List>
    1d00:	08 95       	ret
		case 6:UART_Show_Request_NewUsername();break;	//NEXT EXIST
    1d02:	0e 94 57 0e 	call	0x1cae	; 0x1cae <UART_Show_Request_NewUsername>
    1d06:	08 95       	ret
		case 7:UART_Show_Delete_ID();break;				//NEXT EXIST
    1d08:	0e 94 52 0e 	call	0x1ca4	; 0x1ca4 <UART_Show_Delete_ID>
    1d0c:	08 95       	ret
		case 8:UART_Logged_OFF();break;					//NO NEXT
    1d0e:	0e 94 61 0e 	call	0x1cc2	; 0x1cc2 <UART_Logged_OFF>
    1d12:	08 95       	ret

00001d14 <UART_Show_Login_Failed>:
	}
}


void UART_Show_Login_Failed(){
	UART_Send_String_Polling_8("Login Failed, Try again! ");
    1d14:	8f e2       	ldi	r24, 0x2F	; 47
    1d16:	96 e0       	ldi	r25, 0x06	; 6
    1d18:	0e 94 66 0d 	call	0x1acc	; 0x1acc <UART_Send_String_Polling_8>
	UART_Send_Byte_Polling_8(FailCount + 48);
    1d1c:	80 91 55 06 	lds	r24, 0x0655	; 0x800655 <FailCount>
    1d20:	80 5d       	subi	r24, 0xD0	; 208
    1d22:	0e 94 62 0d 	call	0x1ac4	; 0x1ac4 <UART_Send_Byte_Polling_8>
	UART_Send_String_Polling_8(" \n");
    1d26:	88 e4       	ldi	r24, 0x48	; 72
    1d28:	95 e0       	ldi	r25, 0x05	; 5
    1d2a:	0e 94 66 0d 	call	0x1acc	; 0x1acc <UART_Send_String_Polling_8>
    1d2e:	08 95       	ret

00001d30 <__tablejump2__>:
    1d30:	ee 0f       	add	r30, r30
    1d32:	ff 1f       	adc	r31, r31
    1d34:	05 90       	lpm	r0, Z+
    1d36:	f4 91       	lpm	r31, Z
    1d38:	e0 2d       	mov	r30, r0
    1d3a:	09 94       	ijmp

00001d3c <atoi>:
    1d3c:	fc 01       	movw	r30, r24
    1d3e:	88 27       	eor	r24, r24
    1d40:	99 27       	eor	r25, r25
    1d42:	e8 94       	clt
    1d44:	21 91       	ld	r18, Z+
    1d46:	20 32       	cpi	r18, 0x20	; 32
    1d48:	e9 f3       	breq	.-6      	; 0x1d44 <atoi+0x8>
    1d4a:	29 30       	cpi	r18, 0x09	; 9
    1d4c:	10 f0       	brcs	.+4      	; 0x1d52 <atoi+0x16>
    1d4e:	2e 30       	cpi	r18, 0x0E	; 14
    1d50:	c8 f3       	brcs	.-14     	; 0x1d44 <atoi+0x8>
    1d52:	2b 32       	cpi	r18, 0x2B	; 43
    1d54:	41 f0       	breq	.+16     	; 0x1d66 <atoi+0x2a>
    1d56:	2d 32       	cpi	r18, 0x2D	; 45
    1d58:	39 f4       	brne	.+14     	; 0x1d68 <atoi+0x2c>
    1d5a:	68 94       	set
    1d5c:	04 c0       	rjmp	.+8      	; 0x1d66 <atoi+0x2a>
    1d5e:	0e 94 d7 0e 	call	0x1dae	; 0x1dae <__mulhi_const_10>
    1d62:	82 0f       	add	r24, r18
    1d64:	91 1d       	adc	r25, r1
    1d66:	21 91       	ld	r18, Z+
    1d68:	20 53       	subi	r18, 0x30	; 48
    1d6a:	2a 30       	cpi	r18, 0x0A	; 10
    1d6c:	c0 f3       	brcs	.-16     	; 0x1d5e <atoi+0x22>
    1d6e:	1e f4       	brtc	.+6      	; 0x1d76 <atoi+0x3a>
    1d70:	90 95       	com	r25
    1d72:	81 95       	neg	r24
    1d74:	9f 4f       	sbci	r25, 0xFF	; 255
    1d76:	08 95       	ret

00001d78 <strcmp>:
    1d78:	fb 01       	movw	r30, r22
    1d7a:	dc 01       	movw	r26, r24
    1d7c:	8d 91       	ld	r24, X+
    1d7e:	01 90       	ld	r0, Z+
    1d80:	80 19       	sub	r24, r0
    1d82:	01 10       	cpse	r0, r1
    1d84:	d9 f3       	breq	.-10     	; 0x1d7c <strcmp+0x4>
    1d86:	99 0b       	sbc	r25, r25
    1d88:	08 95       	ret

00001d8a <strcpy>:
    1d8a:	fb 01       	movw	r30, r22
    1d8c:	dc 01       	movw	r26, r24
    1d8e:	01 90       	ld	r0, Z+
    1d90:	0d 92       	st	X+, r0
    1d92:	00 20       	and	r0, r0
    1d94:	e1 f7       	brne	.-8      	; 0x1d8e <strcpy+0x4>
    1d96:	08 95       	ret

00001d98 <__itoa_ncheck>:
    1d98:	bb 27       	eor	r27, r27
    1d9a:	4a 30       	cpi	r20, 0x0A	; 10
    1d9c:	31 f4       	brne	.+12     	; 0x1daa <__itoa_ncheck+0x12>
    1d9e:	99 23       	and	r25, r25
    1da0:	22 f4       	brpl	.+8      	; 0x1daa <__itoa_ncheck+0x12>
    1da2:	bd e2       	ldi	r27, 0x2D	; 45
    1da4:	90 95       	com	r25
    1da6:	81 95       	neg	r24
    1da8:	9f 4f       	sbci	r25, 0xFF	; 255
    1daa:	0c 94 e0 0e 	jmp	0x1dc0	; 0x1dc0 <__utoa_common>

00001dae <__mulhi_const_10>:
    1dae:	7a e0       	ldi	r23, 0x0A	; 10
    1db0:	97 9f       	mul	r25, r23
    1db2:	90 2d       	mov	r25, r0
    1db4:	87 9f       	mul	r24, r23
    1db6:	80 2d       	mov	r24, r0
    1db8:	91 0d       	add	r25, r1
    1dba:	11 24       	eor	r1, r1
    1dbc:	08 95       	ret

00001dbe <__utoa_ncheck>:
    1dbe:	bb 27       	eor	r27, r27

00001dc0 <__utoa_common>:
    1dc0:	fb 01       	movw	r30, r22
    1dc2:	55 27       	eor	r21, r21
    1dc4:	aa 27       	eor	r26, r26
    1dc6:	88 0f       	add	r24, r24
    1dc8:	99 1f       	adc	r25, r25
    1dca:	aa 1f       	adc	r26, r26
    1dcc:	a4 17       	cp	r26, r20
    1dce:	10 f0       	brcs	.+4      	; 0x1dd4 <__utoa_common+0x14>
    1dd0:	a4 1b       	sub	r26, r20
    1dd2:	83 95       	inc	r24
    1dd4:	50 51       	subi	r21, 0x10	; 16
    1dd6:	b9 f7       	brne	.-18     	; 0x1dc6 <__utoa_common+0x6>
    1dd8:	a0 5d       	subi	r26, 0xD0	; 208
    1dda:	aa 33       	cpi	r26, 0x3A	; 58
    1ddc:	08 f0       	brcs	.+2      	; 0x1de0 <__utoa_common+0x20>
    1dde:	a9 5d       	subi	r26, 0xD9	; 217
    1de0:	a1 93       	st	Z+, r26
    1de2:	00 97       	sbiw	r24, 0x00	; 0
    1de4:	79 f7       	brne	.-34     	; 0x1dc4 <__utoa_common+0x4>
    1de6:	b1 11       	cpse	r27, r1
    1de8:	b1 93       	st	Z+, r27
    1dea:	11 92       	st	Z+, r1
    1dec:	cb 01       	movw	r24, r22
    1dee:	0c 94 f9 0e 	jmp	0x1df2	; 0x1df2 <strrev>

00001df2 <strrev>:
    1df2:	dc 01       	movw	r26, r24
    1df4:	fc 01       	movw	r30, r24
    1df6:	67 2f       	mov	r22, r23
    1df8:	71 91       	ld	r23, Z+
    1dfa:	77 23       	and	r23, r23
    1dfc:	e1 f7       	brne	.-8      	; 0x1df6 <strrev+0x4>
    1dfe:	32 97       	sbiw	r30, 0x02	; 2
    1e00:	04 c0       	rjmp	.+8      	; 0x1e0a <strrev+0x18>
    1e02:	7c 91       	ld	r23, X
    1e04:	6d 93       	st	X+, r22
    1e06:	70 83       	st	Z, r23
    1e08:	62 91       	ld	r22, -Z
    1e0a:	ae 17       	cp	r26, r30
    1e0c:	bf 07       	cpc	r27, r31
    1e0e:	c8 f3       	brcs	.-14     	; 0x1e02 <strrev+0x10>
    1e10:	08 95       	ret

00001e12 <_exit>:
    1e12:	f8 94       	cli

00001e14 <__stop_program>:
    1e14:	ff cf       	rjmp	.-2      	; 0x1e14 <__stop_program>
